

Microchip MPLAB XC8 Assembler V2.41 build 20230208172133 
                                                                                               Sat Jul 22 01:10:22 2023

Microchip MPLAB XC8 C Compiler v2.41 (Free license) build 20230208172133 Og1 
     1                           	processor	18F4620
     2                           	fnconf	rparam,??,?,0
     3                           	pagewidth 120
     4                           	opt	flic
     5                           	psect	idataCOMRAM,global,class=CODE,delta=1,noexec
     6                           	psect	idataBANK0,global,class=CODE,delta=1,noexec
     7                           	psect	smallconst,global,reloc=2,class=SMALLCONST,delta=1,noexec
     8                           	psect	cinit,global,reloc=2,class=CODE,delta=1
     9                           	psect	bssCOMRAM,global,class=COMRAM,space=1,delta=1,lowdata,noexec
    10                           	psect	dataCOMRAM,global,class=COMRAM,space=1,delta=1,lowdata,noexec
    11                           	psect	bssBANK0,global,class=BANK0,space=1,delta=1,lowdata,noexec
    12                           	psect	dataBANK0,global,class=BANK0,space=1,delta=1,lowdata,noexec
    13                           	psect	cstackBANK0,global,class=BANK0,space=1,delta=1,lowdata,noexec
    14                           	psect	cstackCOMRAM,global,class=COMRAM,space=1,delta=1,lowdata,noexec
    15                           	psect	text0,global,reloc=2,class=CODE,delta=1
    16                           	psect	text1,global,reloc=2,class=CODE,delta=1
    17                           	psect	text2,global,reloc=2,class=CODE,delta=1
    18                           	psect	text3,global,reloc=2,class=CODE,delta=1
    19                           	psect	text4,global,reloc=2,class=CODE,delta=1
    20                           	psect	text5,global,reloc=2,class=CODE,delta=1
    21                           	psect	text6,global,reloc=2,class=CODE,delta=1
    22                           	psect	text7,global,reloc=2,class=CODE,delta=1
    23                           	psect	text8,global,reloc=2,class=CODE,delta=1
    24                           	psect	text9,global,reloc=2,class=CODE,delta=1
    25                           	psect	text10,global,reloc=2,class=CODE,delta=1
    26                           	psect	text11,global,reloc=2,class=CODE,delta=1
    27                           	psect	text12,global,reloc=2,class=CODE,delta=1
    28                           	psect	text13,global,reloc=2,class=CODE,delta=1
    29                           	psect	text14,global,reloc=2,class=CODE,delta=1
    30                           	psect	text15,global,reloc=2,class=CODE,delta=1
    31                           	psect	text16,global,reloc=2,class=CODE,delta=1
    32                           	psect	text17,global,reloc=2,class=CODE,delta=1
    33                           	psect	intcode,global,reloc=2,class=CODE,delta=1
    34                           	psect	intcode_body,global,reloc=2,class=CODE,delta=1
    35                           	psect	text19,global,reloc=2,class=CODE,delta=1
    36                           	psect	text20,global,reloc=2,class=CODE,delta=1
    37                           	psect	text21,global,reloc=2,class=CODE,delta=1
    38                           	psect	text22,global,reloc=2,class=CODE,delta=1
    39                           	psect	text23,global,reloc=2,class=CODE,delta=1
    40                           	psect	text24,global,reloc=2,class=CODE,delta=1
    41                           	psect	text25,global,reloc=2,class=CODE,delta=1
    42                           	psect	text26,global,reloc=2,class=CODE,delta=1
    43                           	psect	text27,global,reloc=2,class=CODE,delta=1
    44                           	psect	text28,global,reloc=2,class=CODE,delta=1
    45                           	psect	text29,global,reloc=2,class=CODE,delta=1
    46                           	psect	text30,global,reloc=2,class=CODE,delta=1
    47                           	psect	text31,global,reloc=2,class=CODE,delta=1
    48                           	psect	text32,global,reloc=2,class=CODE,delta=1
    49                           	psect	text33,global,reloc=2,class=CODE,delta=1
    50                           	psect	text34,global,reloc=2,class=CODE,delta=1
    51                           	psect	text35,global,reloc=2,class=CODE,delta=1
    52                           	psect	text36,global,reloc=2,class=CODE,delta=1
    53                           	psect	intsave_regs,global,class=BIGRAM,space=1,delta=1,noexec
    54                           	psect	rparam,global,class=COMRAM,space=1,delta=1,noexec
    55                           	psect	temp,global,ovrld,common,class=COMRAM,space=1,delta=1
    56                           	psect	idloc,global,abs,ovrld,class=IDLOC,space=5,delta=1,noexec
    57                           	psect	config,global,abs,ovrld,class=CONFIG,space=4,delta=1,noexec
    58   000000                     
    59                           ; Generated 09/02/2023 GMT
    60                           ; 
    61                           ; Copyright © 2023, Microchip Technology Inc. and its subsidiaries ("Microchip")
    62                           ; All rights reserved.
    63                           ; 
    64                           ; This software is developed by Microchip Technology Inc. and its subsidiaries ("Microch
      +                          ip").
    65                           ; 
    66                           ; Redistribution and use in source and binary forms, with or without modification, are
    67                           ; permitted provided that the following conditions are met:
    68                           ; 
    69                           ;     1. Redistributions of source code must retain the above copyright notice, this lis
      +                          t of
    70                           ;        conditions and the following disclaimer.
    71                           ; 
    72                           ;     2. Redistributions in binary form must reproduce the above copyright notice, this 
      +                          list
    73                           ;        of conditions and the following disclaimer in the documentation and/or other
    74                           ;        materials provided with the distribution. Publication is not required when
    75                           ;        this file is used in an embedded application.
    76                           ; 
    77                           ;     3. Microchip's name may not be used to endorse or promote products derived from th
      +                          is
    78                           ;        software without specific prior written permission.
    79                           ; 
    80                           ; THIS SOFTWARE IS PROVIDED BY MICROCHIP "AS IS" AND ANY EXPRESS OR IMPLIED WARRANTIES,
    81                           ; INCLUDING, BUT NOT LIMITED TO, THE IMPLIED WARRANTIES OF MERCHANTABILITY AND FITNESS F
      +                          OR
    82                           ; PURPOSE ARE DISCLAIMED.  IN NO EVENT SHALL MICROCHIP BE LIABLE FOR ANY DIRECT, INDIREC
      +                          T,
    83                           ; INCIDENTAL, SPECIAL, EXEMPLARY, OR CONSEQUENTIAL DAMAGES (INCLUDING BUT NOT LIMITED TO
    84                           ; PROCUREMENT OF SUBSTITUTE GOODS OR SERVICES; LOSS OF USE, DATA OR PROFITS; OR BUSINESS
    85                           ; INTERRUPTION) HOWSOEVER CAUSED AND ON ANY THEORY OF LIABILITY, WHETHER IN CONTRACT, ST
      +                          RICT
    86                           ; LIABILITY, OR TORT (INCLUDING NEGLIGENCE OR OTHERWISE) ARISING IN ANY WAY OUT OF THE U
      +                          SE OF
    87                           ; THIS SOFTWARE, EVEN IF ADVISED OF THE POSSIBILITY OF SUCH DAMAGE.
    88                           ; 
    89                           ; 
    90                           ; Code-generator required, PIC18F4620 Definitions
    91                           ; 
    92                           ; SFR Addresses
    93   000000                     
    94                           	psect	idataCOMRAM
    95   001E88                     __pidataCOMRAM:
    96                           	callstack 0
    97                           
    98                           ;initializer for _lat_registers
    99   001E88  89                 	db	137
   100   001E89  0F                 	db	15
   101   001E8A  8A                 	db	138
   102   001E8B  0F                 	db	15
   103   001E8C  8B                 	db	139
   104   001E8D  0F                 	db	15
   105   001E8E  8C                 	db	140
   106   001E8F  0F                 	db	15
   107   001E90  8D                 	db	141
   108   001E91  0F                 	db	15
   109                           
   110                           ;initializer for _btn_high
   111   001E92  52                 	db	82
   112   001E93  01                 	db	1
   113   001E94  00                 	db	0
   114                           
   115                           ;initializer for _btn_high_last_valid_status
   116   001E95  01                 	db	1
   117                           
   118                           ;initializer for _btn_high_valid_status
   119   001E96  01                 	db	1
   120                           
   121                           ;initializer for _btn_high_status
   122   001E97  01                 	db	1
   123                           
   124                           ;initializer for _led2
   125   001E98  12                 	db	18
   126                           
   127                           ;initializer for _RB7_Flag
   128   001E99  01                 	db	1
   129                           
   130                           ;initializer for _RB6_Flag
   131   001E9A  01                 	db	1
   132                           
   133                           ;initializer for _RB5_Flag
   134   001E9B  01                 	db	1
   135                           
   136                           ;initializer for _RB4_Flag
   137   001E9C  01                 	db	1
   138                           
   139                           ;initializer for _led1
   140   001E9D  02                 	db	2
   141                           
   142                           	psect	idataBANK0
   143   001DE2                     __pidataBANK0:
   144                           	callstack 0
   145                           
   146                           ;initializer for _port_registers
   147   001DE2  80                 	db	128
   148   001DE3  0F                 	db	15
   149   001DE4  81                 	db	129
   150   001DE5  0F                 	db	15
   151   001DE6  82                 	db	130
   152   001DE7  0F                 	db	15
   153   001DE8  83                 	db	131
   154   001DE9  0F                 	db	15
   155   001DEA  84                 	db	132
   156   001DEB  0F                 	db	15
   157                           
   158                           ;initializer for _tris_registers
   159   001DEC  92                 	db	146
   160   001DED  0F                 	db	15
   161   001DEE  93                 	db	147
   162   001DEF  0F                 	db	15
   163   001DF0  94                 	db	148
   164   001DF1  0F                 	db	15
   165   001DF2  95                 	db	149
   166   001DF3  0F                 	db	15
   167   001DF4  96                 	db	150
   168   001DF5  0F                 	db	15
   169                           
   170                           ;initializer for _lcd_2
   171   001DF6  32                 	db	50
   172   001DF7  3A                 	db	58
   173   001DF8  03                 	db	3
   174   001DF9  0B                 	db	11
   175   001DFA  13                 	db	19
   176   001DFB  1B                 	db	27
   177   001DFC  23                 	db	35
   178   001DFD  2B                 	db	43
   179   001DFE  33                 	db	51
   180   001DFF  3B                 	db	59
   181                           
   182                           ;initializer for _lcd_1
   183   001E00  02                 	db	2
   184   001E01  0A                 	db	10
   185   001E02  12                 	db	18
   186   001E03  1A                 	db	26
   187   001E04  22                 	db	34
   188   001E05  2A                 	db	42
   189                           
   190                           	psect	smallconst
   191   001000                     __psmallconst:
   192                           	callstack 0
   193   001000  00                 	db	0
   194   001001                     _btn_values:
   195                           	callstack 0
   196   001001  37                 	db	55
   197   001002  38                 	db	56
   198   001003  39                 	db	57
   199   001004  2F                 	db	47
   200   001005  34                 	db	52
   201   001006  35                 	db	53
   202   001007  36                 	db	54
   203   001008  2A                 	db	42
   204   001009  31                 	db	49
   205   00100A  32                 	db	50
   206   00100B  33                 	db	51
   207   00100C  2D                 	db	45
   208   00100D  23                 	db	35
   209   00100E  30                 	db	48
   210   00100F  3D                 	db	61
   211   001010  2B                 	db	43
   212   001011                     __end_of_btn_values:
   213                           	callstack 0
   214   000000                     _SPBRGH	set	4016
   215   000000                     _SPBRG	set	4015
   216   000000                     _TXREG	set	4013
   217   000000                     _TXSTAbits	set	4012
   218   000000                     _RCREG	set	4014
   219   000000                     _RCSTAbits	set	4011
   220   000000                     _TMR3L	set	4018
   221   000000                     _TMR3H	set	4019
   222   000000                     _TMR1L	set	4046
   223   000000                     _TMR1H	set	4047
   224   000000                     _TMR0L	set	4054
   225   000000                     _TMR0H	set	4055
   226   000000                     _INTCON2bits	set	4081
   227   000000                     _SSPSTATbits	set	4039
   228   000000                     _SSPADD	set	4040
   229   000000                     _SSPCON2bits	set	4037
   230   000000                     _SSPCON1bits	set	4038
   231   000000                     _EECON2	set	4007
   232   000000                     _CCPR2H	set	4028
   233   000000                     _CCPR2L	set	4027
   234   000000                     _CCPR1H	set	4031
   235   000000                     _CCPR1L	set	4030
   236   000000                     _ADCON1bits	set	4033
   237   000000                     _ADRESL	set	4035
   238   000000                     _ADRESH	set	4036
   239   000000                     _INTCONbits	set	4082
   240   000000                     _TRISD	set	3989
   241   000000                     _TRISC	set	3988
   242   000000                     _TRISB	set	3987
   243   000000                     _TRISE	set	3990
   244   000000                     _PORTBbits	set	3969
   245   000000                     _TRISCbits	set	3988
   246   000000                     _PIE1bits	set	3997
   247   000000                     _ADCON2bits	set	4032
   248   000000                     _ADCON0bits	set	4034
   249   000000                     _PORTE	set	3972
   250   000000                     _PORTD	set	3971
   251   000000                     _PORTC	set	3970
   252   000000                     _PORTB	set	3969
   253   000000                     _PORTA	set	3968
   254   000000                     _LATA	set	3977
   255   000000                     _TRISA	set	3986
   256   000000                     _PIE2bits	set	4000
   257   000000                     _CCP2CONbits	set	4026
   258   000000                     _CCP1CONbits	set	4029
   259   000000                     _PIR1bits	set	3998
   260   000000                     _EECON1bits	set	4006
   261   000000                     _EEDATA	set	4008
   262   000000                     _EEADR	set	4009
   263   000000                     _EEADRH	set	4010
   264   000000                     _T3CONbits	set	4017
   265   000000                     _PIR2bits	set	4001
   266   000000                     _LATE	set	3981
   267   000000                     _LATD	set	3980
   268   000000                     _LATC	set	3979
   269   000000                     _LATB	set	3978
   270   000000                     _TMR2	set	4044
   271   000000                     _T2CONbits	set	4042
   272   000000                     _T1CONbits	set	4045
   273   000000                     _T0CONbits	set	4053
   274   000000                     _INTCON3bits	set	4080
   275   000000                     _SSPBUF	set	4041
   276   000000                     _BAUDCONbits	set	4024
   277   001011                     STR_1:
   278   001011  25                 	db	37
   279   001012  69                 	db	105	;'i'
   280   001013  00                 	db	0
   281   001014  00                 	db	0	; dummy byte at the end
   282   000000                     
   283                           ; #config settings
   284                           
   285                           	psect	cinit
   286   001C8A                     __pcinit:
   287                           	callstack 0
   288   001C8A                     start_initialization:
   289                           	callstack 0
   290   001C8A                     __initialization:
   291                           	callstack 0
   292                           
   293                           ; Initialize objects allocated to BANK0 (36 bytes)
   294                           ; load TBLPTR registers with __pidataBANK0
   295   001C8A  0EE2               	movlw	low __pidataBANK0
   296   001C8C  6EF6               	movwf	tblptrl,c
   297   001C8E  0E1D               	movlw	high __pidataBANK0
   298   001C90  6EF7               	movwf	tblptrh,c
   299   001C92  0E00               	movlw	low (__pidataBANK0 shr (0+16))
   300   001C94  6EF8               	movwf	tblptru,c
   301   001C96  EE00  F080         	lfsr	0,__pdataBANK0
   302   001C9A  EE10 F024          	lfsr	1,36
   303   001C9E                     copy_data0:
   304   001C9E  0009               	tblrd		*+
   305   001CA0  CFF5 FFEE          	movff	tablat,postinc0
   306   001CA4  50E5               	movf	postdec1,w,c
   307   001CA6  50E1               	movf	fsr1l,w,c
   308   001CA8  E1FA               	bnz	copy_data0
   309                           
   310                           ; Initialize objects allocated to COMRAM (22 bytes)
   311                           ; load TBLPTR registers with __pidataCOMRAM
   312   001CAA  0E88               	movlw	low __pidataCOMRAM
   313   001CAC  6EF6               	movwf	tblptrl,c
   314   001CAE  0E1E               	movlw	high __pidataCOMRAM
   315   001CB0  6EF7               	movwf	tblptrh,c
   316   001CB2  0E00               	movlw	low (__pidataCOMRAM shr (0+16))
   317   001CB4  6EF8               	movwf	tblptru,c
   318   001CB6  EE00  F067         	lfsr	0,__pdataCOMRAM
   319   001CBA  EE10 F016          	lfsr	1,22
   320   001CBE                     copy_data1:
   321   001CBE  0009               	tblrd		*+
   322   001CC0  CFF5 FFEE          	movff	tablat,postinc0
   323   001CC4  50E5               	movf	postdec1,w,c
   324   001CC6  50E1               	movf	fsr1l,w,c
   325   001CC8  E1FA               	bnz	copy_data1
   326                           
   327                           ; Clear objects allocated to BANK0 (6 bytes)
   328   001CCA  0100               	movlb	0
   329   001CCC  6BA9               	clrf	(__pbssBANK0+5)& (0+255),b
   330   001CCE  6BA8               	clrf	(__pbssBANK0+4)& (0+255),b
   331   001CD0  6BA7               	clrf	(__pbssBANK0+3)& (0+255),b
   332   001CD2  6BA6               	clrf	(__pbssBANK0+2)& (0+255),b
   333   001CD4  6BA5               	clrf	(__pbssBANK0+1)& (0+255),b
   334   001CD6  6BA4               	clrf	__pbssBANK0& (0+255),b
   335                           
   336                           ; Clear objects allocated to COMRAM (73 bytes)
   337   001CD8  EE00  F001         	lfsr	0,__pbssCOMRAM
   338   001CDC  0E49               	movlw	73
   339   001CDE                     clear_0:
   340   001CDE  6AEE               	clrf	postinc0,c
   341   001CE0  06E8               	decf	wreg,f,c
   342   001CE2  E1FD               	bnz	clear_0
   343   001CE4                     end_of_initialization:
   344                           	callstack 0
   345   001CE4                     __end_of__initialization:
   346                           	callstack 0
   347   001CE4  907D               	bcf	int$flags,0,c	;clear compiler interrupt flag (level 1)
   348   001CE6  927D               	bcf	int$flags,1,c	;clear compiler interrupt flag (level 2)
   349   001CE8  0100               	movlb	0
   350   001CEA  EF5E  F00C         	goto	_main	;jump to C main() function
   351                           
   352                           	psect	bssCOMRAM
   353   000001                     __pbssCOMRAM:
   354                           	callstack 0
   355   000001                     _btn_high_valid:
   356                           	callstack 0
   357   000001                     	ds	4
   358   000005                     _USART_OverrunErrorHandler:
   359                           	callstack 0
   360   000005                     	ds	2
   361   000007                     _USART_FramingErrorHandler:
   362                           	callstack 0
   363   000007                     	ds	2
   364   000009                     _USART_RxDefaultInterruptHandler:
   365                           	callstack 0
   366   000009                     	ds	2
   367   00000B                     _USART_TxDefaultInterruptHandler:
   368                           	callstack 0
   369   00000B                     	ds	2
   370   00000D                     _TMR3_InterruptHandler:
   371                           	callstack 0
   372   00000D                     	ds	2
   373   00000F                     _timer3_preload:
   374                           	callstack 0
   375   00000F                     	ds	2
   376   000011                     _TMR2_InterruptHandler:
   377                           	callstack 0
   378   000011                     	ds	2
   379   000013                     _TMR1_InterruptHandler:
   380                           	callstack 0
   381   000013                     	ds	2
   382   000015                     _timer1_preload:
   383                           	callstack 0
   384   000015                     	ds	2
   385   000017                     _TMR0_InterruptHandler:
   386                           	callstack 0
   387   000017                     	ds	2
   388   000019                     _timer0_preload:
   389                           	callstack 0
   390   000019                     	ds	2
   391   00001B                     _RB7_InterruptHandler_LOW:
   392                           	callstack 0
   393   00001B                     	ds	2
   394   00001D                     _RB7_InterruptHandler_HIGH:
   395                           	callstack 0
   396   00001D                     	ds	2
   397   00001F                     _RB6_InterruptHandler_LOW:
   398                           	callstack 0
   399   00001F                     	ds	2
   400   000021                     _RB6_InterruptHandler_HIGH:
   401                           	callstack 0
   402   000021                     	ds	2
   403   000023                     _RB5_InterruptHandler_LOW:
   404                           	callstack 0
   405   000023                     	ds	2
   406   000025                     _RB5_InterruptHandler_HIGH:
   407                           	callstack 0
   408   000025                     	ds	2
   409   000027                     _RB4_InterruptHandler_LOW:
   410                           	callstack 0
   411   000027                     	ds	2
   412   000029                     _RB4_InterruptHandler_HIGH:
   413                           	callstack 0
   414   000029                     	ds	2
   415   00002B                     _INT2_InterruptHandler:
   416                           	callstack 0
   417   00002B                     	ds	2
   418   00002D                     _INT1_InterruptHandler:
   419                           	callstack 0
   420   00002D                     	ds	2
   421   00002F                     _INT0_InterruptHandler:
   422                           	callstack 0
   423   00002F                     	ds	2
   424   000031                     _MSSP_I2C_Report_Receive_Overflow_InterruptHandler:
   425                           	callstack 0
   426   000031                     	ds	2
   427   000033                     _MSSP_I2C_Report_Write_Collision_InterruptHandler:
   428                           	callstack 0
   429   000033                     	ds	2
   430   000035                     _MSSP_I2C_DefaultInterruptHandler:
   431                           	callstack 0
   432   000035                     	ds	2
   433   000037                     CCP_Set_Compare_Mode_Value@F3106:
   434                           	callstack 0
   435   000037                     	ds	2
   436   000039                     _CCP2_InterruptHandler:
   437                           	callstack 0
   438   000039                     	ds	2
   439   00003B                     _CCP1_InterruptHandler:
   440                           	callstack 0
   441   00003B                     	ds	2
   442   00003D                     _ADC_InterruptHandler:
   443                           	callstack 0
   444   00003D                     	ds	2
   445   00003F                     _program_selected:
   446                           	callstack 0
   447   00003F                     	ds	1
   448   000040                     _eeprom_val:
   449                           	callstack 0
   450   000040                     	ds	1
   451   000041                     _timer2_preload:
   452                           	callstack 0
   453   000041                     	ds	1
   454   000042                     relay_turn_off@F3052:
   455                           	callstack 0
   456   000042                     	ds	1
   457   000043                     relay_turn_on@F3047:
   458                           	callstack 0
   459   000043                     	ds	1
   460   000044                     relay_initialize@F3042:
   461                           	callstack 0
   462   000044                     	ds	1
   463   000045                     led_turn_toggle@F3063:
   464                           	callstack 0
   465   000045                     	ds	1
   466   000046                     led_turn_off@F3058:
   467                           	callstack 0
   468   000046                     	ds	1
   469   000047                     led_turn_on@F3053:
   470                           	callstack 0
   471   000047                     	ds	1
   472   000048                     led_initialize@F3048:
   473                           	callstack 0
   474   000048                     	ds	1
   475   000049                     _eeprom_read_val:
   476                           	callstack 0
   477   000049                     	ds	1
   478                           
   479                           	psect	dataCOMRAM
   480   000067                     __pdataCOMRAM:
   481                           	callstack 0
   482   000067                     _lat_registers:
   483                           	callstack 0
   484   000067                     	ds	10
   485   000071                     _btn_high:
   486                           	callstack 0
   487   000071                     	ds	3
   488   000074                     _btn_high_last_valid_status:
   489                           	callstack 0
   490   000074                     	ds	1
   491   000075                     _btn_high_valid_status:
   492                           	callstack 0
   493   000075                     	ds	1
   494   000076                     _btn_high_status:
   495                           	callstack 0
   496   000076                     	ds	1
   497   000077                     _led2:
   498                           	callstack 0
   499   000077                     	ds	1
   500   000078                     _RB7_Flag:
   501                           	callstack 0
   502   000078                     	ds	1
   503   000079                     _RB6_Flag:
   504                           	callstack 0
   505   000079                     	ds	1
   506   00007A                     _RB5_Flag:
   507                           	callstack 0
   508   00007A                     	ds	1
   509   00007B                     _RB4_Flag:
   510                           	callstack 0
   511   00007B                     	ds	1
   512   00007C                     _led1:
   513                           	callstack 0
   514   00007C                     	ds	1
   515                           
   516                           	psect	bssBANK0
   517   0000A4                     __pbssBANK0:
   518                           	callstack 0
   519   0000A4                     	ds	6
   520                           
   521                           	psect	dataBANK0
   522   000080                     __pdataBANK0:
   523                           	callstack 0
   524   000080                     _port_registers:
   525                           	callstack 0
   526   000080                     	ds	10
   527   00008A                     _tris_registers:
   528                           	callstack 0
   529   00008A                     	ds	10
   530   000094                     _lcd_2:
   531                           	callstack 0
   532   000094                     	ds	10
   533   00009E                     _lcd_1:
   534                           	callstack 0
   535   00009E                     	ds	6
   536                           
   537                           	psect	cstackBANK0
   538   0000AA                     __pcstackBANK0:
   539                           	callstack 0
   540   0000AA                     ??_main:
   541                           
   542                           ; 1 bytes @ 0x0
   543   0000AA                     	ds	2
   544                           
   545                           	psect	cstackCOMRAM
   546   00004A                     __pcstackCOMRAM:
   547                           	callstack 0
   548   00004A                     RB4_ISR@RB4_Source:
   549                           	callstack 0
   550   00004A                     RB5_ISR@RB5_Source:
   551                           	callstack 0
   552   00004A                     RB6_ISR@RB6_Source:
   553                           	callstack 0
   554   00004A                     RB7_ISR@RB7_Source:
   555                           	callstack 0
   556                           
   557                           ; 1 bytes @ 0x0
   558   00004A                     	ds	1
   559   00004B                     Data_EEPROM_WriteByte@bAdd:
   560                           	callstack 0
   561   00004B                     Data_EEPROM_ReadByte@bAdd:
   562                           	callstack 0
   563   00004B                     gpio_pin_direction_intialize@_pin_config:
   564                           	callstack 0
   565   00004B                     gpio_pin_write_logic@_pin_config:
   566                           	callstack 0
   567                           
   568                           ; 2 bytes @ 0x1
   569   00004B                     	ds	2
   570   00004D                     ??_gpio_pin_direction_intialize:
   571   00004D                     Data_EEPROM_WriteByte@bData:
   572                           	callstack 0
   573   00004D                     gpio_pin_write_logic@logic:
   574                           	callstack 0
   575   00004D                     Data_EEPROM_ReadByte@bData:
   576                           	callstack 0
   577                           
   578                           ; 2 bytes @ 0x3
   579   00004D                     	ds	1
   580   00004E                     ??_gpio_pin_write_logic:
   581   00004E                     Data_EEPROM_WriteByte@Global_Interrupt_Status:
   582                           	callstack 0
   583                           
   584                           ; 1 bytes @ 0x4
   585   00004E                     	ds	1
   586   00004F                     Data_EEPROM_ReadByte@ret:
   587                           	callstack 0
   588                           
   589                           ; 1 bytes @ 0x5
   590   00004F                     	ds	4
   591   000053                     gpio_pin_direction_intialize@ret:
   592                           	callstack 0
   593                           
   594                           ; 1 bytes @ 0x9
   595   000053                     	ds	1
   596   000054                     gpio_pin_write_logic@ret:
   597                           	callstack 0
   598                           
   599                           ; 1 bytes @ 0xA
   600   000054                     	ds	1
   601   000055                     lcd_send_4bits@lcd:
   602                           	callstack 0
   603   000055                     lcd_4bit_send_enable_signal@lcd:
   604                           	callstack 0
   605   000055                     lcd_8bit_send_enable_signal@lcd:
   606                           	callstack 0
   607   000055                     led_turn_on@led:
   608                           	callstack 0
   609   000055                     led_turn_off@led:
   610                           	callstack 0
   611   000055                     gpio_pin_intialize@_pin_config:
   612                           	callstack 0
   613                           
   614                           ; 2 bytes @ 0xB
   615   000055                     	ds	2
   616   000057                     ??_gpio_pin_intialize:
   617   000057                     ??_led_turn_on:
   618   000057                     ??_led_turn_off:
   619   000057                     lcd_send_4bits@_data_command:
   620                           	callstack 0
   621   000057                     lcd_4bit_send_enable_signal@ret:
   622                           	callstack 0
   623   000057                     lcd_8bit_send_enable_signal@ret:
   624                           	callstack 0
   625                           
   626                           ; 1 bytes @ 0xD
   627   000057                     	ds	1
   628   000058                     lcd_send_4bits@ret:
   629                           	callstack 0
   630   000058                     led_turn_on@pin_obj:
   631                           	callstack 0
   632   000058                     led_turn_off@pin_obj:
   633                           	callstack 0
   634   000058                     gpio_pin_intialize@ret:
   635                           	callstack 0
   636   000058                     lcd_8bit_send_command@lcd:
   637                           	callstack 0
   638                           
   639                           ; 2 bytes @ 0xE
   640   000058                     	ds	1
   641   000059                     lcd_4bit_send_command@lcd:
   642                           	callstack 0
   643   000059                     led_initialize@led:
   644                           	callstack 0
   645                           
   646                           ; 2 bytes @ 0xF
   647   000059                     	ds	1
   648   00005A                     lcd_8bit_send_command@command:
   649                           	callstack 0
   650                           
   651                           ; 1 bytes @ 0x10
   652   00005A                     	ds	1
   653   00005B                     ??_lcd_8bit_send_command:
   654   00005B                     ??_led_initialize:
   655   00005B                     lcd_4bit_send_command@command:
   656                           	callstack 0
   657                           
   658                           ; 1 bytes @ 0x11
   659   00005B                     	ds	1
   660   00005C                     lcd_4bit_send_command@ret:
   661                           	callstack 0
   662   00005C                     led_initialize@ret:
   663                           	callstack 0
   664                           
   665                           ; 1 bytes @ 0x12
   666   00005C                     	ds	1
   667   00005D                     led_initialize@pin_obj:
   668                           	callstack 0
   669   00005D                     lcd_4bit_intialize@lcd:
   670                           	callstack 0
   671                           
   672                           ; 2 bytes @ 0x13
   673   00005D                     	ds	2
   674   00005F                     ??_lcd_4bit_intialize:
   675   00005F                     lcd_8bit_send_command@ret:
   676                           	callstack 0
   677                           
   678                           ; 1 bytes @ 0x15
   679   00005F                     	ds	1
   680   000060                     lcd_8bit_send_command@l_pin_counter:
   681                           	callstack 0
   682                           
   683                           ; 1 bytes @ 0x16
   684   000060                     	ds	1
   685   000061                     lcd_4bit_intialize@l_data_pins_counter:
   686                           	callstack 0
   687   000061                     lcd_8bit_intialize@lcd:
   688                           	callstack 0
   689                           
   690                           ; 2 bytes @ 0x17
   691   000061                     	ds	1
   692   000062                     lcd_4bit_intialize@ret:
   693                           	callstack 0
   694                           
   695                           ; 1 bytes @ 0x18
   696   000062                     	ds	1
   697   000063                     ??_lcd_8bit_intialize:
   698                           
   699                           ; 1 bytes @ 0x19
   700   000063                     	ds	2
   701   000065                     lcd_8bit_intialize@l_data_pins_counter:
   702                           	callstack 0
   703                           
   704                           ; 1 bytes @ 0x1B
   705   000065                     	ds	1
   706   000066                     lcd_8bit_intialize@ret:
   707                           	callstack 0
   708                           
   709                           ; 1 bytes @ 0x1C
   710   000066                     	ds	1
   711   000067                     
   712                           ; 1 bytes @ 0x1D
   713 ;;
   714 ;;Main: autosize = 0, tempsize = 2, incstack = 0, save=0
   715 ;;
   716 ;; *************** function _main *****************
   717 ;; Defined at:
   718 ;;		line 71 in file "application.c"
   719 ;; Parameters:    Size  Location     Type
   720 ;;		None
   721 ;; Auto vars:     Size  Location     Type
   722 ;;  ret             1    0        unsigned char 
   723 ;; Return value:  Size  Location     Type
   724 ;;                  2  1606[None  ] int 
   725 ;; Registers used:
   726 ;;		wreg, fsr2l, fsr2h, status,2, status,0, prodl, prodh, cstack
   727 ;; Tracked objects:
   728 ;;		On entry : 0/0
   729 ;;		On exit  : 0/0
   730 ;;		Unchanged: 0/0
   731 ;; Data sizes:     COMRAM   BANK0   BANK1   BANK2   BANK3   BANK4   BANK5   BANK6   BANK7   BANK8   BANK9  BANK10  BANK1
      +1  BANK12  BANK13  BANK14  BANK15
   732 ;;      Params:         0       0       0       0       0       0       0       0       0       0       0       0       
      +0       0       0       0       0
   733 ;;      Locals:         0       0       0       0       0       0       0       0       0       0       0       0       
      +0       0       0       0       0
   734 ;;      Temps:          0       2       0       0       0       0       0       0       0       0       0       0       
      +0       0       0       0       0
   735 ;;      Totals:         0       2       0       0       0       0       0       0       0       0       0       0       
      +0       0       0       0       0
   736 ;;Total ram usage:        2 bytes
   737 ;; Hardware stack levels required when called: 8
   738 ;; This function calls:
   739 ;;		_Data_EEPROM_ReadByte
   740 ;;		_Data_EEPROM_WriteByte
   741 ;;		_application_intialize
   742 ;;		_led_initialize
   743 ;;		_led_turn_off
   744 ;;		_led_turn_on
   745 ;; This function is called by:
   746 ;;		Startup code after reset
   747 ;; This function uses a non-reentrant model
   748 ;;
   749                           
   750                           	psect	text0
   751   0018BC                     __ptext0:
   752                           	callstack 0
   753   0018BC                     _main:
   754                           	callstack 23
   755   0018BC                     
   756                           ;application.c: 74:     application_intialize();
   757   0018BC  EC65  F00F         	call	_application_intialize	;wreg free
   758   0018C0  0E7C               	movlw	low _led1
   759   0018C2  6E59               	movwf	led_initialize@led^0,c
   760   0018C4  0E00               	movlw	high _led1
   761   0018C6  6E5A               	movwf	(led_initialize@led+1)^0,c
   762   0018C8  ECEE  F00C         	call	_led_initialize	;wreg free
   763   0018CC  0E03               	movlw	3
   764   0018CE  6E4C               	movwf	(Data_EEPROM_WriteByte@bAdd+1)^0,c
   765   0018D0  684B               	setf	Data_EEPROM_WriteByte@bAdd^0,c
   766   0018D2  0E00               	movlw	0
   767   0018D4  6E4D               	movwf	Data_EEPROM_WriteByte@bData^0,c
   768   0018D6  EC77  F00E         	call	_Data_EEPROM_WriteByte	;wreg free
   769   0018DA                     l5976:
   770   0018DA  0E03               	movlw	3
   771   0018DC  6E4C               	movwf	(Data_EEPROM_WriteByte@bAdd+1)^0,c
   772   0018DE  684B               	setf	Data_EEPROM_WriteByte@bAdd^0,c
   773   0018E0  C040  F04D         	movff	_eeprom_val,Data_EEPROM_WriteByte@bData
   774   0018E4  EC77  F00E         	call	_Data_EEPROM_WriteByte	;wreg free
   775   0018E8  2A40               	incf	_eeprom_val^0,f,c
   776   0018EA                     
   777                           ;application.c: 81:         _delay((unsigned long)((1000)*(8000000UL/4000.0)));
   778   0018EA  0E0B               	movlw	11
   779   0018EC  0100               	movlb	0	; () banked
   780   0018EE  6FAB               	movwf	(??_main+1)& (0+255),b
   781   0018F0  0E26               	movlw	38
   782   0018F2  6FAA               	movwf	??_main& (0+255),b
   783   0018F4  0E5D               	movlw	93
   784   0018F6                     u4157:
   785   0018F6  2EE8               	decfsz	wreg,f,c
   786   0018F8  D7FE               	bra	u4157
   787   0018FA  2FAA               	decfsz	??_main& (0+255),f,b
   788   0018FC  D7FC               	bra	u4157
   789   0018FE  2FAB               	decfsz	(??_main+1)& (0+255),f,b
   790   001900  D7FA               	bra	u4157
   791   001902  D000               	nop2	
   792   001904  0E03               	movlw	3
   793   001906  6E4C               	movwf	(Data_EEPROM_ReadByte@bAdd+1)^0,c
   794   001908  684B               	setf	Data_EEPROM_ReadByte@bAdd^0,c
   795   00190A  0E49               	movlw	low _eeprom_read_val
   796   00190C  6E4D               	movwf	Data_EEPROM_ReadByte@bData^0,c
   797   00190E  0E00               	movlw	high _eeprom_read_val
   798   001910  6E4E               	movwf	(Data_EEPROM_ReadByte@bData+1)^0,c
   799   001912  EC9A  F00E         	call	_Data_EEPROM_ReadByte	;wreg free
   800   001916                     
   801                           ;application.c: 83:         if(5 == eeprom_read_val)
   802   001916  0E05               	movlw	5
   803   001918  1849               	xorwf	_eeprom_read_val^0,w,c
   804   00191A  A4D8               	btfss	status,2,c
   805   00191C  EF92  F00C         	goto	u4141
   806   001920  EF94  F00C         	goto	u4140
   807   001924                     u4141:
   808   001924  EF9C  F00C         	goto	l5988
   809   001928                     u4140:
   810   001928                     
   811                           ;application.c: 84:         {;application.c: 85:             led_turn_on(&led1);
   812   001928  0E7C               	movlw	low _led1
   813   00192A  6E55               	movwf	led_turn_on@led^0,c
   814   00192C  0E00               	movlw	high _led1
   815   00192E  6E56               	movwf	(led_turn_on@led+1)^0,c
   816   001930  EC2C  F00D         	call	_led_turn_on	;wreg free
   817                           
   818                           ;application.c: 86:         }
   819   001934  EF6D  F00C         	goto	l5976
   820   001938                     l5988:
   821                           
   822                           ;application.c: 88:         {;application.c: 89:             led_turn_off(&led1);
   823   001938  0E7C               	movlw	low _led1
   824   00193A  6E55               	movwf	led_turn_off@led^0,c
   825   00193C  0E00               	movlw	high _led1
   826   00193E  6E56               	movwf	(led_turn_off@led+1)^0,c
   827   001940  EC67  F00D         	call	_led_turn_off	;wreg free
   828   001944  EF6D  F00C         	goto	l5976
   829   001948  EF07  F000         	goto	start
   830   00194C                     __end_of_main:
   831                           	callstack 0
   832                           
   833 ;; *************** function _led_turn_on *****************
   834 ;; Defined at:
   835 ;;		line 43 in file "ECU_Layer/LED/ecu_led.c"
   836 ;; Parameters:    Size  Location     Type
   837 ;;  led             2   11[COMRAM] PTR const struct .
   838 ;;		 -> led1(1), 
   839 ;; Auto vars:     Size  Location     Type
   840 ;;  pin_obj         1   14[COMRAM] struct .
   841 ;;  ret             1    0        unsigned char 
   842 ;; Return value:  Size  Location     Type
   843 ;;                  1    wreg      unsigned char 
   844 ;; Registers used:
   845 ;;		wreg, fsr2l, fsr2h, status,2, status,0, prodl, prodh, cstack
   846 ;; Tracked objects:
   847 ;;		On entry : 0/0
   848 ;;		On exit  : 0/0
   849 ;;		Unchanged: 0/0
   850 ;; Data sizes:     COMRAM   BANK0   BANK1   BANK2   BANK3   BANK4   BANK5   BANK6   BANK7   BANK8   BANK9  BANK10  BANK1
      +1  BANK12  BANK13  BANK14  BANK15
   851 ;;      Params:         2       0       0       0       0       0       0       0       0       0       0       0       
      +0       0       0       0       0
   852 ;;      Locals:         1       0       0       0       0       0       0       0       0       0       0       0       
      +0       0       0       0       0
   853 ;;      Temps:          1       0       0       0       0       0       0       0       0       0       0       0       
      +0       0       0       0       0
   854 ;;      Totals:         4       0       0       0       0       0       0       0       0       0       0       0       
      +0       0       0       0       0
   855 ;;Total ram usage:        4 bytes
   856 ;; Hardware stack levels used: 1
   857 ;; Hardware stack levels required when called: 3
   858 ;; This function calls:
   859 ;;		_gpio_pin_write_logic
   860 ;; This function is called by:
   861 ;;		_main
   862 ;;		_program_1
   863 ;;		_program_2
   864 ;;		_program_3
   865 ;; This function uses a non-reentrant model
   866 ;;
   867                           
   868                           	psect	text1
   869   001A58                     __ptext1:
   870                           	callstack 0
   871   001A58                     _led_turn_on:
   872                           	callstack 27
   873   001A58                     
   874                           ;ECU_Layer/LED/ecu_led.c: 46:      if(((void*)0) == led)
   875   001A58  5055               	movf	led_turn_on@led^0,w,c
   876   001A5A  1056               	iorwf	(led_turn_on@led+1)^0,w,c
   877   001A5C  A4D8               	btfss	status,2,c
   878   001A5E  EF33  F00D         	goto	u3371
   879   001A62  EF35  F00D         	goto	u3370
   880   001A66                     u3371:
   881   001A66  EF37  F00D         	goto	l277
   882   001A6A                     u3370:
   883   001A6A                     
   884                           ;ECU_Layer/LED/ecu_led.c: 49:      }
   885   001A6A  EF66  F00D         	goto	l281
   886   001A6E                     l277:
   887                           
   888                           ;ECU_Layer/LED/ecu_led.c: 51:      {;ECU_Layer/LED/ecu_led.c: 52:         pin_config_t p
      +                          in_obj = { .port = led->port_name, .pin = led->pin, .direction = GPIO_DIRECTION_OUTPUT,.
      +                          logic = led->led_status };
   889   001A6E  C047  F058         	movff	led_turn_on@F3053,led_turn_on@pin_obj
   890   001A72  C055  FFD9         	movff	led_turn_on@led,fsr2l
   891   001A76  C056  FFDA         	movff	led_turn_on@led+1,fsr2h
   892   001A7A  50DF               	movf	223,w,c
   893   001A7C  0B0F               	andlw	15
   894   001A7E  6E57               	movwf	??_led_turn_on^0,c
   895   001A80  5058               	movf	led_turn_on@pin_obj^0,w,c
   896   001A82  1857               	xorwf	??_led_turn_on^0,w,c
   897   001A84  0BF8               	andlw	-8
   898   001A86  1857               	xorwf	??_led_turn_on^0,w,c
   899   001A88  6E58               	movwf	led_turn_on@pin_obj^0,c
   900   001A8A  C055  FFD9         	movff	led_turn_on@led,fsr2l
   901   001A8E  C056  FFDA         	movff	led_turn_on@led+1,fsr2h
   902   001A92  38DF               	swapf	223,w,c
   903   001A94  0B07               	andlw	7
   904   001A96  6E57               	movwf	??_led_turn_on^0,c
   905   001A98  4657               	rlncf	??_led_turn_on^0,f,c
   906   001A9A  4657               	rlncf	??_led_turn_on^0,f,c
   907   001A9C  4657               	rlncf	??_led_turn_on^0,f,c
   908   001A9E  5058               	movf	led_turn_on@pin_obj^0,w,c
   909   001AA0  1857               	xorwf	??_led_turn_on^0,w,c
   910   001AA2  0BC7               	andlw	-57
   911   001AA4  1857               	xorwf	??_led_turn_on^0,w,c
   912   001AA6  6E58               	movwf	led_turn_on@pin_obj^0,c
   913   001AA8  9C58               	bcf	led_turn_on@pin_obj^0,6,c
   914   001AAA  C055  FFD9         	movff	led_turn_on@led,fsr2l
   915   001AAE  C056  FFDA         	movff	led_turn_on@led+1,fsr2h
   916   001AB2  AEDF               	btfss	indf2,7,c
   917   001AB4  D002               	bra	u3385
   918   001AB6  8E58               	bsf	led_turn_on@pin_obj^0,7,c
   919   001AB8  D001               	bra	u3387
   920   001ABA                     u3385:
   921   001ABA  9E58               	bcf	led_turn_on@pin_obj^0,7,c
   922   001ABC                     u3387:
   923   001ABC                     
   924                           ;ECU_Layer/LED/ecu_led.c: 53:         gpio_pin_write_logic(&pin_obj, GPIO_HIGH);
   925   001ABC  0E58               	movlw	low led_turn_on@pin_obj
   926   001ABE  6E4B               	movwf	gpio_pin_write_logic@_pin_config^0,c
   927   001AC0  0E00               	movlw	high led_turn_on@pin_obj
   928   001AC2  6E4C               	movwf	(gpio_pin_write_logic@_pin_config+1)^0,c
   929   001AC4  0E01               	movlw	1
   930   001AC6  6E4D               	movwf	gpio_pin_write_logic@logic^0,c
   931   001AC8  ECA0  F00A         	call	_gpio_pin_write_logic	;wreg free
   932   001ACC                     l281:
   933   001ACC  0012               	return		;funcret
   934   001ACE                     __end_of_led_turn_on:
   935                           	callstack 0
   936                           
   937 ;; *************** function _led_turn_off *****************
   938 ;; Defined at:
   939 ;;		line 65 in file "ECU_Layer/LED/ecu_led.c"
   940 ;; Parameters:    Size  Location     Type
   941 ;;  led             2   11[COMRAM] PTR const struct .
   942 ;;		 -> led1(1), 
   943 ;; Auto vars:     Size  Location     Type
   944 ;;  pin_obj         1   14[COMRAM] struct .
   945 ;;  ret             1    0        unsigned char 
   946 ;; Return value:  Size  Location     Type
   947 ;;                  1    wreg      unsigned char 
   948 ;; Registers used:
   949 ;;		wreg, fsr2l, fsr2h, status,2, status,0, prodl, prodh, cstack
   950 ;; Tracked objects:
   951 ;;		On entry : 0/0
   952 ;;		On exit  : 0/0
   953 ;;		Unchanged: 0/0
   954 ;; Data sizes:     COMRAM   BANK0   BANK1   BANK2   BANK3   BANK4   BANK5   BANK6   BANK7   BANK8   BANK9  BANK10  BANK1
      +1  BANK12  BANK13  BANK14  BANK15
   955 ;;      Params:         2       0       0       0       0       0       0       0       0       0       0       0       
      +0       0       0       0       0
   956 ;;      Locals:         1       0       0       0       0       0       0       0       0       0       0       0       
      +0       0       0       0       0
   957 ;;      Temps:          1       0       0       0       0       0       0       0       0       0       0       0       
      +0       0       0       0       0
   958 ;;      Totals:         4       0       0       0       0       0       0       0       0       0       0       0       
      +0       0       0       0       0
   959 ;;Total ram usage:        4 bytes
   960 ;; Hardware stack levels used: 1
   961 ;; Hardware stack levels required when called: 3
   962 ;; This function calls:
   963 ;;		_gpio_pin_write_logic
   964 ;; This function is called by:
   965 ;;		_main
   966 ;;		_program_1
   967 ;;		_program_2
   968 ;;		_program_3
   969 ;; This function uses a non-reentrant model
   970 ;;
   971                           
   972                           	psect	text2
   973   001ACE                     __ptext2:
   974                           	callstack 0
   975   001ACE                     _led_turn_off:
   976                           	callstack 27
   977   001ACE                     
   978                           ;ECU_Layer/LED/ecu_led.c: 68:      if(((void*)0) == led)
   979   001ACE  5055               	movf	led_turn_off@led^0,w,c
   980   001AD0  1056               	iorwf	(led_turn_off@led+1)^0,w,c
   981   001AD2  A4D8               	btfss	status,2,c
   982   001AD4  EF6E  F00D         	goto	u3391
   983   001AD8  EF70  F00D         	goto	u3390
   984   001ADC                     u3391:
   985   001ADC  EF72  F00D         	goto	l284
   986   001AE0                     u3390:
   987   001AE0                     
   988                           ;ECU_Layer/LED/ecu_led.c: 71:      }
   989   001AE0  EFA1  F00D         	goto	l288
   990   001AE4                     l284:
   991                           
   992                           ;ECU_Layer/LED/ecu_led.c: 73:      {;ECU_Layer/LED/ecu_led.c: 74:         pin_config_t p
      +                          in_obj = { .port = led->port_name, .pin = led->pin, .direction = GPIO_DIRECTION_OUTPUT,.
      +                          logic = led->led_status };
   993   001AE4  C046  F058         	movff	led_turn_off@F3058,led_turn_off@pin_obj
   994   001AE8  C055  FFD9         	movff	led_turn_off@led,fsr2l
   995   001AEC  C056  FFDA         	movff	led_turn_off@led+1,fsr2h
   996   001AF0  50DF               	movf	223,w,c
   997   001AF2  0B0F               	andlw	15
   998   001AF4  6E57               	movwf	??_led_turn_off^0,c
   999   001AF6  5058               	movf	led_turn_off@pin_obj^0,w,c
  1000   001AF8  1857               	xorwf	??_led_turn_off^0,w,c
  1001   001AFA  0BF8               	andlw	-8
  1002   001AFC  1857               	xorwf	??_led_turn_off^0,w,c
  1003   001AFE  6E58               	movwf	led_turn_off@pin_obj^0,c
  1004   001B00  C055  FFD9         	movff	led_turn_off@led,fsr2l
  1005   001B04  C056  FFDA         	movff	led_turn_off@led+1,fsr2h
  1006   001B08  38DF               	swapf	223,w,c
  1007   001B0A  0B07               	andlw	7
  1008   001B0C  6E57               	movwf	??_led_turn_off^0,c
  1009   001B0E  4657               	rlncf	??_led_turn_off^0,f,c
  1010   001B10  4657               	rlncf	??_led_turn_off^0,f,c
  1011   001B12  4657               	rlncf	??_led_turn_off^0,f,c
  1012   001B14  5058               	movf	led_turn_off@pin_obj^0,w,c
  1013   001B16  1857               	xorwf	??_led_turn_off^0,w,c
  1014   001B18  0BC7               	andlw	-57
  1015   001B1A  1857               	xorwf	??_led_turn_off^0,w,c
  1016   001B1C  6E58               	movwf	led_turn_off@pin_obj^0,c
  1017   001B1E  9C58               	bcf	led_turn_off@pin_obj^0,6,c
  1018   001B20  C055  FFD9         	movff	led_turn_off@led,fsr2l
  1019   001B24  C056  FFDA         	movff	led_turn_off@led+1,fsr2h
  1020   001B28  AEDF               	btfss	indf2,7,c
  1021   001B2A  D002               	bra	u3405
  1022   001B2C  8E58               	bsf	led_turn_off@pin_obj^0,7,c
  1023   001B2E  D001               	bra	u3407
  1024   001B30                     u3405:
  1025   001B30  9E58               	bcf	led_turn_off@pin_obj^0,7,c
  1026   001B32                     u3407:
  1027   001B32                     
  1028                           ;ECU_Layer/LED/ecu_led.c: 75:         gpio_pin_write_logic(&pin_obj, GPIO_LOW);
  1029   001B32  0E58               	movlw	low led_turn_off@pin_obj
  1030   001B34  6E4B               	movwf	gpio_pin_write_logic@_pin_config^0,c
  1031   001B36  0E00               	movlw	high led_turn_off@pin_obj
  1032   001B38  6E4C               	movwf	(gpio_pin_write_logic@_pin_config+1)^0,c
  1033   001B3A  0E00               	movlw	0
  1034   001B3C  6E4D               	movwf	gpio_pin_write_logic@logic^0,c
  1035   001B3E  ECA0  F00A         	call	_gpio_pin_write_logic	;wreg free
  1036   001B42                     l288:
  1037   001B42  0012               	return		;funcret
  1038   001B44                     __end_of_led_turn_off:
  1039                           	callstack 0
  1040                           
  1041 ;; *************** function _led_initialize *****************
  1042 ;; Defined at:
  1043 ;;		line 21 in file "ECU_Layer/LED/ecu_led.c"
  1044 ;; Parameters:    Size  Location     Type
  1045 ;;  led             2   15[COMRAM] PTR const struct .
  1046 ;;		 -> led1(1), 
  1047 ;; Auto vars:     Size  Location     Type
  1048 ;;  pin_obj         1   19[COMRAM] struct .
  1049 ;;  ret             1   18[COMRAM] unsigned char 
  1050 ;; Return value:  Size  Location     Type
  1051 ;;                  1    wreg      unsigned char 
  1052 ;; Registers used:
  1053 ;;		wreg, fsr2l, fsr2h, status,2, status,0, prodl, prodh, cstack
  1054 ;; Tracked objects:
  1055 ;;		On entry : 0/0
  1056 ;;		On exit  : 0/0
  1057 ;;		Unchanged: 0/0
  1058 ;; Data sizes:     COMRAM   BANK0   BANK1   BANK2   BANK3   BANK4   BANK5   BANK6   BANK7   BANK8   BANK9  BANK10  BANK1
      +1  BANK12  BANK13  BANK14  BANK15
  1059 ;;      Params:         2       0       0       0       0       0       0       0       0       0       0       0       
      +0       0       0       0       0
  1060 ;;      Locals:         2       0       0       0       0       0       0       0       0       0       0       0       
      +0       0       0       0       0
  1061 ;;      Temps:          1       0       0       0       0       0       0       0       0       0       0       0       
      +0       0       0       0       0
  1062 ;;      Totals:         5       0       0       0       0       0       0       0       0       0       0       0       
      +0       0       0       0       0
  1063 ;;Total ram usage:        5 bytes
  1064 ;; Hardware stack levels used: 1
  1065 ;; Hardware stack levels required when called: 4
  1066 ;; This function calls:
  1067 ;;		_gpio_pin_intialize
  1068 ;; This function is called by:
  1069 ;;		_main
  1070 ;; This function uses a non-reentrant model
  1071 ;;
  1072                           
  1073                           	psect	text3
  1074   0019DC                     __ptext3:
  1075                           	callstack 0
  1076   0019DC                     _led_initialize:
  1077                           	callstack 26
  1078   0019DC                     
  1079                           ;ECU_Layer/LED/ecu_led.c: 21: Std_ReturnType led_initialize(const led_t *led);ECU_Layer/
      +                          LED/ecu_led.c: 22: {;ECU_Layer/LED/ecu_led.c: 23:     Std_ReturnType ret = (Std_ReturnTy
      +                          pe)0x01;
  1080   0019DC  0E01               	movlw	1
  1081   0019DE  6E5C               	movwf	led_initialize@ret^0,c
  1082   0019E0                     
  1083                           ;ECU_Layer/LED/ecu_led.c: 24:     if(((void*)0) == led)
  1084   0019E0  5059               	movf	led_initialize@led^0,w,c
  1085   0019E2  105A               	iorwf	(led_initialize@led+1)^0,w,c
  1086   0019E4  A4D8               	btfss	status,2,c
  1087   0019E6  EFF7  F00C         	goto	u3351
  1088   0019EA  EFF9  F00C         	goto	u3350
  1089   0019EE                     u3351:
  1090   0019EE  EFFD  F00C         	goto	l270
  1091   0019F2                     u3350:
  1092   0019F2                     
  1093                           ;ECU_Layer/LED/ecu_led.c: 25:     {;ECU_Layer/LED/ecu_led.c: 26:         ret = (Std_Retu
      +                          rnType)0x00;
  1094   0019F2  0E00               	movlw	0
  1095   0019F4  6E5C               	movwf	led_initialize@ret^0,c
  1096                           
  1097                           ;ECU_Layer/LED/ecu_led.c: 27:     }
  1098   0019F6  EF2A  F00D         	goto	l5214
  1099   0019FA                     l270:
  1100                           
  1101                           ;ECU_Layer/LED/ecu_led.c: 29:     {;ECU_Layer/LED/ecu_led.c: 30:         pin_config_t pi
      +                          n_obj = { .port = led->port_name, .pin = led->pin, .direction = GPIO_DIRECTION_OUTPUT,.l
      +                          ogic = led->led_status };
  1102   0019FA  C048  F05D         	movff	led_initialize@F3048,led_initialize@pin_obj
  1103   0019FE  C059  FFD9         	movff	led_initialize@led,fsr2l
  1104   001A02  C05A  FFDA         	movff	led_initialize@led+1,fsr2h
  1105   001A06  50DF               	movf	223,w,c
  1106   001A08  0B0F               	andlw	15
  1107   001A0A  6E5B               	movwf	??_led_initialize^0,c
  1108   001A0C  505D               	movf	led_initialize@pin_obj^0,w,c
  1109   001A0E  185B               	xorwf	??_led_initialize^0,w,c
  1110   001A10  0BF8               	andlw	-8
  1111   001A12  185B               	xorwf	??_led_initialize^0,w,c
  1112   001A14  6E5D               	movwf	led_initialize@pin_obj^0,c
  1113   001A16  C059  FFD9         	movff	led_initialize@led,fsr2l
  1114   001A1A  C05A  FFDA         	movff	led_initialize@led+1,fsr2h
  1115   001A1E  38DF               	swapf	223,w,c
  1116   001A20  0B07               	andlw	7
  1117   001A22  6E5B               	movwf	??_led_initialize^0,c
  1118   001A24  465B               	rlncf	??_led_initialize^0,f,c
  1119   001A26  465B               	rlncf	??_led_initialize^0,f,c
  1120   001A28  465B               	rlncf	??_led_initialize^0,f,c
  1121   001A2A  505D               	movf	led_initialize@pin_obj^0,w,c
  1122   001A2C  185B               	xorwf	??_led_initialize^0,w,c
  1123   001A2E  0BC7               	andlw	-57
  1124   001A30  185B               	xorwf	??_led_initialize^0,w,c
  1125   001A32  6E5D               	movwf	led_initialize@pin_obj^0,c
  1126   001A34  9C5D               	bcf	led_initialize@pin_obj^0,6,c
  1127   001A36  C059  FFD9         	movff	led_initialize@led,fsr2l
  1128   001A3A  C05A  FFDA         	movff	led_initialize@led+1,fsr2h
  1129   001A3E  AEDF               	btfss	indf2,7,c
  1130   001A40  D002               	bra	u3365
  1131   001A42  8E5D               	bsf	led_initialize@pin_obj^0,7,c
  1132   001A44  D001               	bra	u3367
  1133   001A46                     u3365:
  1134   001A46  9E5D               	bcf	led_initialize@pin_obj^0,7,c
  1135   001A48                     u3367:
  1136   001A48                     
  1137                           ;ECU_Layer/LED/ecu_led.c: 31:         gpio_pin_intialize(&pin_obj);
  1138   001A48  0E5D               	movlw	low led_initialize@pin_obj
  1139   001A4A  6E55               	movwf	gpio_pin_intialize@_pin_config^0,c
  1140   001A4C  0E00               	movlw	high led_initialize@pin_obj
  1141   001A4E  6E56               	movwf	(gpio_pin_intialize@_pin_config+1)^0,c
  1142   001A50  ECDB  F00D         	call	_gpio_pin_intialize	;wreg free
  1143   001A54                     l5214:
  1144                           
  1145                           ;ECU_Layer/LED/ecu_led.c: 33:     return ret;
  1146   001A54  505C               	movf	led_initialize@ret^0,w,c
  1147   001A56  0012               	return		;funcret
  1148   001A58                     __end_of_led_initialize:
  1149                           	callstack 0
  1150                           
  1151 ;; *************** function _application_intialize *****************
  1152 ;; Defined at:
  1153 ;;		line 97 in file "application.c"
  1154 ;; Parameters:    Size  Location     Type
  1155 ;;		None
  1156 ;; Auto vars:     Size  Location     Type
  1157 ;;  ret             1    0        unsigned char 
  1158 ;; Return value:  Size  Location     Type
  1159 ;;                  1    wreg      void 
  1160 ;; Registers used:
  1161 ;;		wreg, fsr2l, fsr2h, status,2, status,0, prodl, prodh, cstack
  1162 ;; Tracked objects:
  1163 ;;		On entry : 0/0
  1164 ;;		On exit  : 0/0
  1165 ;;		Unchanged: 0/0
  1166 ;; Data sizes:     COMRAM   BANK0   BANK1   BANK2   BANK3   BANK4   BANK5   BANK6   BANK7   BANK8   BANK9  BANK10  BANK1
      +1  BANK12  BANK13  BANK14  BANK15
  1167 ;;      Params:         0       0       0       0       0       0       0       0       0       0       0       0       
      +0       0       0       0       0
  1168 ;;      Locals:         0       0       0       0       0       0       0       0       0       0       0       0       
      +0       0       0       0       0
  1169 ;;      Temps:          0       0       0       0       0       0       0       0       0       0       0       0       
      +0       0       0       0       0
  1170 ;;      Totals:         0       0       0       0       0       0       0       0       0       0       0       0       
      +0       0       0       0       0
  1171 ;;Total ram usage:        0 bytes
  1172 ;; Hardware stack levels used: 1
  1173 ;; Hardware stack levels required when called: 7
  1174 ;; This function calls:
  1175 ;;		_ecu_layer_intialize
  1176 ;; This function is called by:
  1177 ;;		_main
  1178 ;; This function uses a non-reentrant model
  1179 ;;
  1180                           
  1181                           	psect	text4
  1182   001ECA                     __ptext4:
  1183                           	callstack 0
  1184   001ECA                     _application_intialize:
  1185                           	callstack 23
  1186   001ECA                     
  1187                           ;application.c: 100:     ecu_layer_intialize();
  1188   001ECA  EC03  F00F         	call	_ecu_layer_intialize	;wreg free
  1189   001ECE  0012               	return		;funcret
  1190   001ED0                     __end_of_application_intialize:
  1191                           	callstack 0
  1192                           
  1193 ;; *************** function _ecu_layer_intialize *****************
  1194 ;; Defined at:
  1195 ;;		line 96 in file "ECU_Layer/ecu_layer_init.c"
  1196 ;; Parameters:    Size  Location     Type
  1197 ;;		None
  1198 ;; Auto vars:     Size  Location     Type
  1199 ;;  ret             1    0        unsigned char 
  1200 ;; Return value:  Size  Location     Type
  1201 ;;                  1    wreg      void 
  1202 ;; Registers used:
  1203 ;;		wreg, fsr2l, fsr2h, status,2, status,0, prodl, prodh, cstack
  1204 ;; Tracked objects:
  1205 ;;		On entry : 0/0
  1206 ;;		On exit  : 0/0
  1207 ;;		Unchanged: 0/0
  1208 ;; Data sizes:     COMRAM   BANK0   BANK1   BANK2   BANK3   BANK4   BANK5   BANK6   BANK7   BANK8   BANK9  BANK10  BANK1
      +1  BANK12  BANK13  BANK14  BANK15
  1209 ;;      Params:         0       0       0       0       0       0       0       0       0       0       0       0       
      +0       0       0       0       0
  1210 ;;      Locals:         0       0       0       0       0       0       0       0       0       0       0       0       
      +0       0       0       0       0
  1211 ;;      Temps:          0       0       0       0       0       0       0       0       0       0       0       0       
      +0       0       0       0       0
  1212 ;;      Totals:         0       0       0       0       0       0       0       0       0       0       0       0       
      +0       0       0       0       0
  1213 ;;Total ram usage:        0 bytes
  1214 ;; Hardware stack levels used: 1
  1215 ;; Hardware stack levels required when called: 6
  1216 ;; This function calls:
  1217 ;;		_lcd_4bit_intialize
  1218 ;;		_lcd_8bit_intialize
  1219 ;; This function is called by:
  1220 ;;		_application_intialize
  1221 ;; This function uses a non-reentrant model
  1222 ;;
  1223                           
  1224                           	psect	text5
  1225   001E06                     __ptext5:
  1226                           	callstack 0
  1227   001E06                     _ecu_layer_intialize:
  1228                           	callstack 23
  1229   001E06  0E9E               	movlw	low _lcd_1
  1230   001E08  6E5D               	movwf	lcd_4bit_intialize@lcd^0,c
  1231   001E0A  0E00               	movlw	high _lcd_1
  1232   001E0C  6E5E               	movwf	(lcd_4bit_intialize@lcd+1)^0,c
  1233   001E0E  ECCA  F00B         	call	_lcd_4bit_intialize	;wreg free
  1234   001E12  0E94               	movlw	low _lcd_2
  1235   001E14  6E61               	movwf	lcd_8bit_intialize@lcd^0,c
  1236   001E16  0E00               	movlw	high _lcd_2
  1237   001E18  6E62               	movwf	(lcd_8bit_intialize@lcd+1)^0,c
  1238   001E1A  EC36  F00B         	call	_lcd_8bit_intialize	;wreg free
  1239   001E1E  0012               	return		;funcret
  1240   001E20                     __end_of_ecu_layer_intialize:
  1241                           	callstack 0
  1242                           
  1243 ;; *************** function _lcd_8bit_intialize *****************
  1244 ;; Defined at:
  1245 ;;		line 275 in file "ECU_Layer/Chr_LCD/ecu_chr_lcd.c"
  1246 ;; Parameters:    Size  Location     Type
  1247 ;;  lcd             2   23[COMRAM] PTR const struct .
  1248 ;;		 -> lcd_2(10), 
  1249 ;; Auto vars:     Size  Location     Type
  1250 ;;  ret             1   28[COMRAM] unsigned char 
  1251 ;;  l_data_pins_    1   27[COMRAM] unsigned char 
  1252 ;; Return value:  Size  Location     Type
  1253 ;;                  1    wreg      unsigned char 
  1254 ;; Registers used:
  1255 ;;		wreg, fsr2l, fsr2h, status,2, status,0, prodl, prodh, cstack
  1256 ;; Tracked objects:
  1257 ;;		On entry : 0/0
  1258 ;;		On exit  : 0/0
  1259 ;;		Unchanged: 0/0
  1260 ;; Data sizes:     COMRAM   BANK0   BANK1   BANK2   BANK3   BANK4   BANK5   BANK6   BANK7   BANK8   BANK9  BANK10  BANK1
      +1  BANK12  BANK13  BANK14  BANK15
  1261 ;;      Params:         2       0       0       0       0       0       0       0       0       0       0       0       
      +0       0       0       0       0
  1262 ;;      Locals:         2       0       0       0       0       0       0       0       0       0       0       0       
      +0       0       0       0       0
  1263 ;;      Temps:          2       0       0       0       0       0       0       0       0       0       0       0       
      +0       0       0       0       0
  1264 ;;      Totals:         6       0       0       0       0       0       0       0       0       0       0       0       
      +0       0       0       0       0
  1265 ;;Total ram usage:        6 bytes
  1266 ;; Hardware stack levels used: 1
  1267 ;; Hardware stack levels required when called: 5
  1268 ;; This function calls:
  1269 ;;		_gpio_pin_intialize
  1270 ;;		_lcd_8bit_send_command
  1271 ;; This function is called by:
  1272 ;;		_ecu_layer_intialize
  1273 ;; This function uses a non-reentrant model
  1274 ;;
  1275                           
  1276                           	psect	text6
  1277   00166C                     __ptext6:
  1278                           	callstack 0
  1279   00166C                     _lcd_8bit_intialize:
  1280                           	callstack 23
  1281   00166C                     
  1282                           ;ECU_Layer/Chr_LCD/ecu_chr_lcd.c: 278:     uint8 l_data_pins_counter = 0;
  1283   00166C  0E00               	movlw	0
  1284   00166E  6E65               	movwf	lcd_8bit_intialize@l_data_pins_counter^0,c
  1285   001670                     
  1286                           ;ECU_Layer/Chr_LCD/ecu_chr_lcd.c: 279:     if(((void*)0) == lcd)
  1287   001670  5061               	movf	lcd_8bit_intialize@lcd^0,w,c
  1288   001672  1062               	iorwf	(lcd_8bit_intialize@lcd+1)^0,w,c
  1289   001674  A4D8               	btfss	status,2,c
  1290   001676  EF3F  F00B         	goto	u3251
  1291   00167A  EF41  F00B         	goto	u3250
  1292   00167E                     u3251:
  1293   00167E  EF45  F00B         	goto	l5076
  1294   001682                     u3250:
  1295   001682                     
  1296                           ;ECU_Layer/Chr_LCD/ecu_chr_lcd.c: 280:     {;ECU_Layer/Chr_LCD/ecu_chr_lcd.c: 281:      
      +                             ret = (Std_ReturnType)0x00;
  1297   001682  0E00               	movlw	0
  1298   001684  6E66               	movwf	lcd_8bit_intialize@ret^0,c
  1299                           
  1300                           ;ECU_Layer/Chr_LCD/ecu_chr_lcd.c: 282:     }
  1301   001686  EFC8  F00B         	goto	l5112
  1302   00168A                     l5076:
  1303                           
  1304                           ;ECU_Layer/Chr_LCD/ecu_chr_lcd.c: 284:     {;ECU_Layer/Chr_LCD/ecu_chr_lcd.c: 285:      
      +                             ret = gpio_pin_intialize(&(lcd->lcd_rs));
  1305   00168A  C061  F055         	movff	lcd_8bit_intialize@lcd,gpio_pin_intialize@_pin_config
  1306   00168E  C062  F056         	movff	lcd_8bit_intialize@lcd+1,gpio_pin_intialize@_pin_config+1
  1307   001692  ECDB  F00D         	call	_gpio_pin_intialize	;wreg free
  1308   001696  6E66               	movwf	lcd_8bit_intialize@ret^0,c
  1309                           
  1310                           ;ECU_Layer/Chr_LCD/ecu_chr_lcd.c: 286:         ret = gpio_pin_intialize(&(lcd->lcd_en));
  1311   001698  0E01               	movlw	1
  1312   00169A  2461               	addwf	lcd_8bit_intialize@lcd^0,w,c
  1313   00169C  6E55               	movwf	gpio_pin_intialize@_pin_config^0,c
  1314   00169E  0E00               	movlw	0
  1315   0016A0  2062               	addwfc	(lcd_8bit_intialize@lcd+1)^0,w,c
  1316   0016A2  6E56               	movwf	(gpio_pin_intialize@_pin_config+1)^0,c
  1317   0016A4  ECDB  F00D         	call	_gpio_pin_intialize	;wreg free
  1318   0016A8  6E66               	movwf	lcd_8bit_intialize@ret^0,c
  1319   0016AA                     
  1320                           ;ECU_Layer/Chr_LCD/ecu_chr_lcd.c: 287:         for(l_data_pins_counter = 0; l_data_pins_
      +                          counter < 8; l_data_pins_counter++)
  1321   0016AA  0E00               	movlw	0
  1322   0016AC  6E65               	movwf	lcd_8bit_intialize@l_data_pins_counter^0,c
  1323   0016AE                     l5084:
  1324   0016AE  5065               	movf	lcd_8bit_intialize@l_data_pins_counter^0,w,c
  1325   0016B0  2461               	addwf	lcd_8bit_intialize@lcd^0,w,c
  1326   0016B2  6E63               	movwf	??_lcd_8bit_intialize^0,c
  1327   0016B4  0E00               	movlw	0
  1328   0016B6  2062               	addwfc	(lcd_8bit_intialize@lcd+1)^0,w,c
  1329   0016B8  6E64               	movwf	(??_lcd_8bit_intialize+1)^0,c
  1330   0016BA  0E02               	movlw	2
  1331   0016BC  2463               	addwf	??_lcd_8bit_intialize^0,w,c
  1332   0016BE  6E55               	movwf	gpio_pin_intialize@_pin_config^0,c
  1333   0016C0  0E00               	movlw	0
  1334   0016C2  2064               	addwfc	(??_lcd_8bit_intialize+1)^0,w,c
  1335   0016C4  6E56               	movwf	(gpio_pin_intialize@_pin_config+1)^0,c
  1336   0016C6  ECDB  F00D         	call	_gpio_pin_intialize	;wreg free
  1337   0016CA                     
  1338                           ;ECU_Layer/Chr_LCD/ecu_chr_lcd.c: 290:         }
  1339   0016CA  2A65               	incf	lcd_8bit_intialize@l_data_pins_counter^0,f,c
  1340   0016CC  0E07               	movlw	7
  1341   0016CE  6465               	cpfsgt	lcd_8bit_intialize@l_data_pins_counter^0,c
  1342   0016D0  EF6C  F00B         	goto	u3261
  1343   0016D4  EF6E  F00B         	goto	u3260
  1344   0016D8                     u3261:
  1345   0016D8  EF57  F00B         	goto	l5084
  1346   0016DC                     u3260:
  1347   0016DC                     
  1348                           ;ECU_Layer/Chr_LCD/ecu_chr_lcd.c: 291:         _delay((unsigned long)((20)*(8000000UL/40
      +                          00.0)));
  1349   0016DC  0E34               	movlw	52
  1350   0016DE  6E63               	movwf	??_lcd_8bit_intialize^0,c
  1351   0016E0  0EF2               	movlw	242
  1352   0016E2                     u4167:
  1353   0016E2  2EE8               	decfsz	wreg,f,c
  1354   0016E4  D7FE               	bra	u4167
  1355   0016E6  2E63               	decfsz	??_lcd_8bit_intialize^0,f,c
  1356   0016E8  D7FC               	bra	u4167
  1357   0016EA  C061  F058         	movff	lcd_8bit_intialize@lcd,lcd_8bit_send_command@lcd
  1358   0016EE  C062  F059         	movff	lcd_8bit_intialize@lcd+1,lcd_8bit_send_command@lcd+1
  1359   0016F2  0E38               	movlw	56
  1360   0016F4  6E5A               	movwf	lcd_8bit_send_command@command^0,c
  1361   0016F6  ECA6  F00C         	call	_lcd_8bit_send_command	;wreg free
  1362   0016FA                     
  1363                           ;ECU_Layer/Chr_LCD/ecu_chr_lcd.c: 293:         _delay((unsigned long)((5)*(8000000UL/400
      +                          0.0)));
  1364   0016FA  0E0D               	movlw	13
  1365   0016FC  6E63               	movwf	??_lcd_8bit_intialize^0,c
  1366   0016FE  0EFC               	movlw	252
  1367   001700                     u4177:
  1368   001700  2EE8               	decfsz	wreg,f,c
  1369   001702  D7FE               	bra	u4177
  1370   001704  2E63               	decfsz	??_lcd_8bit_intialize^0,f,c
  1371   001706  D7FC               	bra	u4177
  1372   001708  C061  F058         	movff	lcd_8bit_intialize@lcd,lcd_8bit_send_command@lcd
  1373   00170C  C062  F059         	movff	lcd_8bit_intialize@lcd+1,lcd_8bit_send_command@lcd+1
  1374   001710  0E38               	movlw	56
  1375   001712  6E5A               	movwf	lcd_8bit_send_command@command^0,c
  1376   001714  ECA6  F00C         	call	_lcd_8bit_send_command	;wreg free
  1377   001718                     
  1378                           ;ECU_Layer/Chr_LCD/ecu_chr_lcd.c: 295:         _delay((unsigned long)((150)*(8000000UL/4
      +                          000000.0)));
  1379   001718  0E64               	movlw	100
  1380   00171A                     u4187:
  1381   00171A  2EE8               	decfsz	wreg,f,c
  1382   00171C  D7FE               	bra	u4187
  1383   00171E  C061  F058         	movff	lcd_8bit_intialize@lcd,lcd_8bit_send_command@lcd
  1384   001722  C062  F059         	movff	lcd_8bit_intialize@lcd+1,lcd_8bit_send_command@lcd+1
  1385   001726  0E38               	movlw	56
  1386   001728  6E5A               	movwf	lcd_8bit_send_command@command^0,c
  1387   00172A  ECA6  F00C         	call	_lcd_8bit_send_command	;wreg free
  1388   00172E  C061  F058         	movff	lcd_8bit_intialize@lcd,lcd_8bit_send_command@lcd
  1389   001732  C062  F059         	movff	lcd_8bit_intialize@lcd+1,lcd_8bit_send_command@lcd+1
  1390   001736  0E01               	movlw	1
  1391   001738  6E5A               	movwf	lcd_8bit_send_command@command^0,c
  1392   00173A  ECA6  F00C         	call	_lcd_8bit_send_command	;wreg free
  1393   00173E  C061  F058         	movff	lcd_8bit_intialize@lcd,lcd_8bit_send_command@lcd
  1394   001742  C062  F059         	movff	lcd_8bit_intialize@lcd+1,lcd_8bit_send_command@lcd+1
  1395   001746  0E02               	movlw	2
  1396   001748  6E5A               	movwf	lcd_8bit_send_command@command^0,c
  1397   00174A  ECA6  F00C         	call	_lcd_8bit_send_command	;wreg free
  1398   00174E  C061  F058         	movff	lcd_8bit_intialize@lcd,lcd_8bit_send_command@lcd
  1399   001752  C062  F059         	movff	lcd_8bit_intialize@lcd+1,lcd_8bit_send_command@lcd+1
  1400   001756  0E06               	movlw	6
  1401   001758  6E5A               	movwf	lcd_8bit_send_command@command^0,c
  1402   00175A  ECA6  F00C         	call	_lcd_8bit_send_command	;wreg free
  1403   00175E  C061  F058         	movff	lcd_8bit_intialize@lcd,lcd_8bit_send_command@lcd
  1404   001762  C062  F059         	movff	lcd_8bit_intialize@lcd+1,lcd_8bit_send_command@lcd+1
  1405   001766  0E0C               	movlw	12
  1406   001768  6E5A               	movwf	lcd_8bit_send_command@command^0,c
  1407   00176A  ECA6  F00C         	call	_lcd_8bit_send_command	;wreg free
  1408   00176E  C061  F058         	movff	lcd_8bit_intialize@lcd,lcd_8bit_send_command@lcd
  1409   001772  C062  F059         	movff	lcd_8bit_intialize@lcd+1,lcd_8bit_send_command@lcd+1
  1410   001776  0E38               	movlw	56
  1411   001778  6E5A               	movwf	lcd_8bit_send_command@command^0,c
  1412   00177A  ECA6  F00C         	call	_lcd_8bit_send_command	;wreg free
  1413   00177E                     
  1414                           ;ECU_Layer/Chr_LCD/ecu_chr_lcd.c: 303:         ret = lcd_8bit_send_command(lcd, 0x80);
  1415   00177E  C061  F058         	movff	lcd_8bit_intialize@lcd,lcd_8bit_send_command@lcd
  1416   001782  C062  F059         	movff	lcd_8bit_intialize@lcd+1,lcd_8bit_send_command@lcd+1
  1417   001786  0E80               	movlw	128
  1418   001788  6E5A               	movwf	lcd_8bit_send_command@command^0,c
  1419   00178A  ECA6  F00C         	call	_lcd_8bit_send_command	;wreg free
  1420   00178E  6E66               	movwf	lcd_8bit_intialize@ret^0,c
  1421   001790                     l5112:
  1422                           
  1423                           ;ECU_Layer/Chr_LCD/ecu_chr_lcd.c: 305:     return ret;
  1424   001790  5066               	movf	lcd_8bit_intialize@ret^0,w,c
  1425   001792  0012               	return		;funcret
  1426   001794                     __end_of_lcd_8bit_intialize:
  1427                           	callstack 0
  1428                           
  1429 ;; *************** function _lcd_8bit_send_command *****************
  1430 ;; Defined at:
  1431 ;;		line 316 in file "ECU_Layer/Chr_LCD/ecu_chr_lcd.c"
  1432 ;; Parameters:    Size  Location     Type
  1433 ;;  lcd             2   14[COMRAM] PTR const struct .
  1434 ;;		 -> lcd_2(10), 
  1435 ;;  command         1   16[COMRAM] unsigned char 
  1436 ;; Auto vars:     Size  Location     Type
  1437 ;;  l_pin_counte    1   22[COMRAM] unsigned char 
  1438 ;;  ret             1   21[COMRAM] unsigned char 
  1439 ;; Return value:  Size  Location     Type
  1440 ;;                  1    wreg      unsigned char 
  1441 ;; Registers used:
  1442 ;;		wreg, fsr2l, fsr2h, status,2, status,0, prodl, prodh, cstack
  1443 ;; Tracked objects:
  1444 ;;		On entry : 0/0
  1445 ;;		On exit  : 0/0
  1446 ;;		Unchanged: 0/0
  1447 ;; Data sizes:     COMRAM   BANK0   BANK1   BANK2   BANK3   BANK4   BANK5   BANK6   BANK7   BANK8   BANK9  BANK10  BANK1
      +1  BANK12  BANK13  BANK14  BANK15
  1448 ;;      Params:         3       0       0       0       0       0       0       0       0       0       0       0       
      +0       0       0       0       0
  1449 ;;      Locals:         2       0       0       0       0       0       0       0       0       0       0       0       
      +0       0       0       0       0
  1450 ;;      Temps:          4       0       0       0       0       0       0       0       0       0       0       0       
      +0       0       0       0       0
  1451 ;;      Totals:         9       0       0       0       0       0       0       0       0       0       0       0       
      +0       0       0       0       0
  1452 ;;Total ram usage:        9 bytes
  1453 ;; Hardware stack levels used: 1
  1454 ;; Hardware stack levels required when called: 4
  1455 ;; This function calls:
  1456 ;;		_gpio_pin_write_logic
  1457 ;;		_lcd_8bit_send_enable_signal
  1458 ;; This function is called by:
  1459 ;;		_lcd_8bit_intialize
  1460 ;;		_lcd_8bit_send_custom_char
  1461 ;;		_lcd_8bit_set_cursor
  1462 ;; This function uses a non-reentrant model
  1463 ;;
  1464                           
  1465                           	psect	text7
  1466   00194C                     __ptext7:
  1467                           	callstack 0
  1468   00194C                     _lcd_8bit_send_command:
  1469                           	callstack 23
  1470   00194C                     
  1471                           ;ECU_Layer/Chr_LCD/ecu_chr_lcd.c: 319:     uint8 l_pin_counter = 0;
  1472   00194C  0E00               	movlw	0
  1473   00194E  6E60               	movwf	lcd_8bit_send_command@l_pin_counter^0,c
  1474   001950                     
  1475                           ;ECU_Layer/Chr_LCD/ecu_chr_lcd.c: 320:     if(((void*)0) == lcd)
  1476   001950  5058               	movf	lcd_8bit_send_command@lcd^0,w,c
  1477   001952  1059               	iorwf	(lcd_8bit_send_command@lcd+1)^0,w,c
  1478   001954  A4D8               	btfss	status,2,c
  1479   001956  EFAF  F00C         	goto	u3201
  1480   00195A  EFB1  F00C         	goto	u3200
  1481   00195E                     u3201:
  1482   00195E  EFB5  F00C         	goto	l5004
  1483   001962                     u3200:
  1484   001962                     
  1485                           ;ECU_Layer/Chr_LCD/ecu_chr_lcd.c: 321:     {;ECU_Layer/Chr_LCD/ecu_chr_lcd.c: 322:      
      +                             ret = (Std_ReturnType)0x00;
  1486   001962  0E00               	movlw	0
  1487   001964  6E5F               	movwf	lcd_8bit_send_command@ret^0,c
  1488                           
  1489                           ;ECU_Layer/Chr_LCD/ecu_chr_lcd.c: 323:     }
  1490   001966  EFEC  F00C         	goto	l5020
  1491   00196A                     l5004:
  1492   00196A  C058  F04B         	movff	lcd_8bit_send_command@lcd,gpio_pin_write_logic@_pin_config
  1493   00196E  C059  F04C         	movff	lcd_8bit_send_command@lcd+1,gpio_pin_write_logic@_pin_config+1
  1494   001972  0E00               	movlw	0
  1495   001974  6E4D               	movwf	gpio_pin_write_logic@logic^0,c
  1496   001976  ECA0  F00A         	call	_gpio_pin_write_logic	;wreg free
  1497   00197A                     
  1498                           ;ECU_Layer/Chr_LCD/ecu_chr_lcd.c: 328:         for(l_pin_counter = 0; l_pin_counter < 8;
      +                           ++l_pin_counter)
  1499   00197A  0E00               	movlw	0
  1500   00197C  6E60               	movwf	lcd_8bit_send_command@l_pin_counter^0,c
  1501   00197E                     l5012:
  1502   00197E  5060               	movf	lcd_8bit_send_command@l_pin_counter^0,w,c
  1503   001980  2458               	addwf	lcd_8bit_send_command@lcd^0,w,c
  1504   001982  6E5B               	movwf	??_lcd_8bit_send_command^0,c
  1505   001984  0E00               	movlw	0
  1506   001986  2059               	addwfc	(lcd_8bit_send_command@lcd+1)^0,w,c
  1507   001988  6E5C               	movwf	(??_lcd_8bit_send_command+1)^0,c
  1508   00198A  0E02               	movlw	2
  1509   00198C  245B               	addwf	??_lcd_8bit_send_command^0,w,c
  1510   00198E  6E4B               	movwf	gpio_pin_write_logic@_pin_config^0,c
  1511   001990  0E00               	movlw	0
  1512   001992  205C               	addwfc	(??_lcd_8bit_send_command+1)^0,w,c
  1513   001994  6E4C               	movwf	(gpio_pin_write_logic@_pin_config+1)^0,c
  1514   001996  C060  F05D         	movff	lcd_8bit_send_command@l_pin_counter,??_lcd_8bit_send_command+2
  1515   00199A  C05A  F05E         	movff	lcd_8bit_send_command@command,??_lcd_8bit_send_command+3
  1516   00199E  2A5D               	incf	(??_lcd_8bit_send_command+2)^0,f,c
  1517   0019A0  EFD4  F00C         	goto	u3214
  1518   0019A4                     u3215:
  1519   0019A4  90D8               	bcf	status,0,c
  1520   0019A6  325E               	rrcf	(??_lcd_8bit_send_command+3)^0,f,c
  1521   0019A8                     u3214:
  1522   0019A8  2E5D               	decfsz	(??_lcd_8bit_send_command+2)^0,f,c
  1523   0019AA  EFD2  F00C         	goto	u3215
  1524   0019AE  505E               	movf	(??_lcd_8bit_send_command+3)^0,w,c
  1525   0019B0  0B01               	andlw	1
  1526   0019B2  6E4D               	movwf	gpio_pin_write_logic@logic^0,c
  1527   0019B4  ECA0  F00A         	call	_gpio_pin_write_logic	;wreg free
  1528   0019B8                     
  1529                           ;ECU_Layer/Chr_LCD/ecu_chr_lcd.c: 331:         }
  1530   0019B8  2A60               	incf	lcd_8bit_send_command@l_pin_counter^0,f,c
  1531   0019BA  0E07               	movlw	7
  1532   0019BC  6460               	cpfsgt	lcd_8bit_send_command@l_pin_counter^0,c
  1533   0019BE  EFE3  F00C         	goto	u3221
  1534   0019C2  EFE5  F00C         	goto	u3220
  1535   0019C6                     u3221:
  1536   0019C6  EFBF  F00C         	goto	l5012
  1537   0019CA                     u3220:
  1538   0019CA                     
  1539                           ;ECU_Layer/Chr_LCD/ecu_chr_lcd.c: 332:         ret = lcd_8bit_send_enable_signal(lcd);
  1540   0019CA  C058  F055         	movff	lcd_8bit_send_command@lcd,lcd_8bit_send_enable_signal@lcd
  1541   0019CE  C059  F056         	movff	lcd_8bit_send_command@lcd+1,lcd_8bit_send_enable_signal@lcd+1
  1542   0019D2  ECBB  F00E         	call	_lcd_8bit_send_enable_signal	;wreg free
  1543   0019D6  6E5F               	movwf	lcd_8bit_send_command@ret^0,c
  1544   0019D8                     l5020:
  1545                           
  1546                           ;ECU_Layer/Chr_LCD/ecu_chr_lcd.c: 334:     return ret;
  1547   0019D8  505F               	movf	lcd_8bit_send_command@ret^0,w,c
  1548   0019DA  0012               	return		;funcret
  1549   0019DC                     __end_of_lcd_8bit_send_command:
  1550                           	callstack 0
  1551                           
  1552 ;; *************** function _lcd_8bit_send_enable_signal *****************
  1553 ;; Defined at:
  1554 ;;		line 590 in file "ECU_Layer/Chr_LCD/ecu_chr_lcd.c"
  1555 ;; Parameters:    Size  Location     Type
  1556 ;;  lcd             2   11[COMRAM] PTR const struct .
  1557 ;;		 -> lcd_2(10), 
  1558 ;; Auto vars:     Size  Location     Type
  1559 ;;  ret             1   13[COMRAM] unsigned char 
  1560 ;; Return value:  Size  Location     Type
  1561 ;;                  1    wreg      unsigned char 
  1562 ;; Registers used:
  1563 ;;		wreg, fsr2l, fsr2h, status,2, status,0, prodl, prodh, cstack
  1564 ;; Tracked objects:
  1565 ;;		On entry : 0/0
  1566 ;;		On exit  : 0/0
  1567 ;;		Unchanged: 0/0
  1568 ;; Data sizes:     COMRAM   BANK0   BANK1   BANK2   BANK3   BANK4   BANK5   BANK6   BANK7   BANK8   BANK9  BANK10  BANK1
      +1  BANK12  BANK13  BANK14  BANK15
  1569 ;;      Params:         2       0       0       0       0       0       0       0       0       0       0       0       
      +0       0       0       0       0
  1570 ;;      Locals:         1       0       0       0       0       0       0       0       0       0       0       0       
      +0       0       0       0       0
  1571 ;;      Temps:          0       0       0       0       0       0       0       0       0       0       0       0       
      +0       0       0       0       0
  1572 ;;      Totals:         3       0       0       0       0       0       0       0       0       0       0       0       
      +0       0       0       0       0
  1573 ;;Total ram usage:        3 bytes
  1574 ;; Hardware stack levels used: 1
  1575 ;; Hardware stack levels required when called: 3
  1576 ;; This function calls:
  1577 ;;		_gpio_pin_write_logic
  1578 ;; This function is called by:
  1579 ;;		_lcd_8bit_send_command
  1580 ;;		_lcd_8bit_send_char_data
  1581 ;; This function uses a non-reentrant model
  1582 ;;
  1583                           
  1584                           	psect	text8
  1585   001D76                     __ptext8:
  1586                           	callstack 0
  1587   001D76                     _lcd_8bit_send_enable_signal:
  1588                           	callstack 23
  1589   001D76  0E01               	movlw	1
  1590   001D78  2455               	addwf	lcd_8bit_send_enable_signal@lcd^0,w,c
  1591   001D7A  6E4B               	movwf	gpio_pin_write_logic@_pin_config^0,c
  1592   001D7C  0E00               	movlw	0
  1593   001D7E  2056               	addwfc	(lcd_8bit_send_enable_signal@lcd+1)^0,w,c
  1594   001D80  6E4C               	movwf	(gpio_pin_write_logic@_pin_config+1)^0,c
  1595   001D82  0E01               	movlw	1
  1596   001D84  6E4D               	movwf	gpio_pin_write_logic@logic^0,c
  1597   001D86  ECA0  F00A         	call	_gpio_pin_write_logic	;wreg free
  1598   001D8A                     
  1599                           ;ECU_Layer/Chr_LCD/ecu_chr_lcd.c: 594:     _delay((unsigned long)((5)*(8000000UL/4000000
      +                          .0)));
  1600   001D8A  0E03               	movlw	3
  1601   001D8C                     u4197:
  1602   001D8C  2EE8               	decfsz	wreg,f,c
  1603   001D8E  D7FE               	bra	u4197
  1604   001D90  F000               	nop	
  1605   001D92                     
  1606                           ;ECU_Layer/Chr_LCD/ecu_chr_lcd.c: 595:     ret = gpio_pin_write_logic(&(lcd->lcd_en), GP
      +                          IO_LOW);
  1607   001D92  0E01               	movlw	1
  1608   001D94  2455               	addwf	lcd_8bit_send_enable_signal@lcd^0,w,c
  1609   001D96  6E4B               	movwf	gpio_pin_write_logic@_pin_config^0,c
  1610   001D98  0E00               	movlw	0
  1611   001D9A  2056               	addwfc	(lcd_8bit_send_enable_signal@lcd+1)^0,w,c
  1612   001D9C  6E4C               	movwf	(gpio_pin_write_logic@_pin_config+1)^0,c
  1613   001D9E  0E00               	movlw	0
  1614   001DA0  6E4D               	movwf	gpio_pin_write_logic@logic^0,c
  1615   001DA2  ECA0  F00A         	call	_gpio_pin_write_logic	;wreg free
  1616   001DA6  6E57               	movwf	lcd_8bit_send_enable_signal@ret^0,c
  1617   001DA8                     
  1618                           ;ECU_Layer/Chr_LCD/ecu_chr_lcd.c: 596:     return ret;
  1619   001DA8  5057               	movf	lcd_8bit_send_enable_signal@ret^0,w,c
  1620   001DAA  0012               	return		;funcret
  1621   001DAC                     __end_of_lcd_8bit_send_enable_signal:
  1622                           	callstack 0
  1623                           
  1624 ;; *************** function _lcd_4bit_intialize *****************
  1625 ;; Defined at:
  1626 ;;		line 73 in file "ECU_Layer/Chr_LCD/ecu_chr_lcd.c"
  1627 ;; Parameters:    Size  Location     Type
  1628 ;;  lcd             2   19[COMRAM] PTR const struct .
  1629 ;;		 -> lcd_1(6), 
  1630 ;; Auto vars:     Size  Location     Type
  1631 ;;  ret             1   24[COMRAM] unsigned char 
  1632 ;;  l_data_pins_    1   23[COMRAM] unsigned char 
  1633 ;; Return value:  Size  Location     Type
  1634 ;;                  1    wreg      unsigned char 
  1635 ;; Registers used:
  1636 ;;		wreg, fsr2l, fsr2h, status,2, status,0, prodl, prodh, cstack
  1637 ;; Tracked objects:
  1638 ;;		On entry : 0/0
  1639 ;;		On exit  : 0/0
  1640 ;;		Unchanged: 0/0
  1641 ;; Data sizes:     COMRAM   BANK0   BANK1   BANK2   BANK3   BANK4   BANK5   BANK6   BANK7   BANK8   BANK9  BANK10  BANK1
      +1  BANK12  BANK13  BANK14  BANK15
  1642 ;;      Params:         2       0       0       0       0       0       0       0       0       0       0       0       
      +0       0       0       0       0
  1643 ;;      Locals:         2       0       0       0       0       0       0       0       0       0       0       0       
      +0       0       0       0       0
  1644 ;;      Temps:          2       0       0       0       0       0       0       0       0       0       0       0       
      +0       0       0       0       0
  1645 ;;      Totals:         6       0       0       0       0       0       0       0       0       0       0       0       
      +0       0       0       0       0
  1646 ;;Total ram usage:        6 bytes
  1647 ;; Hardware stack levels used: 1
  1648 ;; Hardware stack levels required when called: 5
  1649 ;; This function calls:
  1650 ;;		_gpio_pin_intialize
  1651 ;;		_lcd_4bit_send_command
  1652 ;; This function is called by:
  1653 ;;		_ecu_layer_intialize
  1654 ;; This function uses a non-reentrant model
  1655 ;;
  1656                           
  1657                           	psect	text9
  1658   001794                     __ptext9:
  1659                           	callstack 0
  1660   001794                     _lcd_4bit_intialize:
  1661                           	callstack 23
  1662   001794                     
  1663                           ;ECU_Layer/Chr_LCD/ecu_chr_lcd.c: 76:     uint8 l_data_pins_counter = 0;
  1664   001794  0E00               	movlw	0
  1665   001796  6E61               	movwf	lcd_4bit_intialize@l_data_pins_counter^0,c
  1666   001798                     
  1667                           ;ECU_Layer/Chr_LCD/ecu_chr_lcd.c: 77:     if(((void*)0) == lcd)
  1668   001798  505D               	movf	lcd_4bit_intialize@lcd^0,w,c
  1669   00179A  105E               	iorwf	(lcd_4bit_intialize@lcd+1)^0,w,c
  1670   00179C  A4D8               	btfss	status,2,c
  1671   00179E  EFD3  F00B         	goto	u3231
  1672   0017A2  EFD5  F00B         	goto	u3230
  1673   0017A6                     u3231:
  1674   0017A6  EFD9  F00B         	goto	l5030
  1675   0017AA                     u3230:
  1676   0017AA                     
  1677                           ;ECU_Layer/Chr_LCD/ecu_chr_lcd.c: 78:     {;ECU_Layer/Chr_LCD/ecu_chr_lcd.c: 79:        
      +                           ret = (Std_ReturnType)0x00;
  1678   0017AA  0E00               	movlw	0
  1679   0017AC  6E62               	movwf	lcd_4bit_intialize@ret^0,c
  1680                           
  1681                           ;ECU_Layer/Chr_LCD/ecu_chr_lcd.c: 80:     }
  1682   0017AE  EF5C  F00C         	goto	l5066
  1683   0017B2                     l5030:
  1684                           
  1685                           ;ECU_Layer/Chr_LCD/ecu_chr_lcd.c: 82:     {;ECU_Layer/Chr_LCD/ecu_chr_lcd.c: 83:        
      +                           ret = gpio_pin_intialize(&(lcd->lcd_rs));
  1686   0017B2  C05D  F055         	movff	lcd_4bit_intialize@lcd,gpio_pin_intialize@_pin_config
  1687   0017B6  C05E  F056         	movff	lcd_4bit_intialize@lcd+1,gpio_pin_intialize@_pin_config+1
  1688   0017BA  ECDB  F00D         	call	_gpio_pin_intialize	;wreg free
  1689   0017BE  6E62               	movwf	lcd_4bit_intialize@ret^0,c
  1690                           
  1691                           ;ECU_Layer/Chr_LCD/ecu_chr_lcd.c: 84:         ret = gpio_pin_intialize(&(lcd->lcd_en));
  1692   0017C0  0E01               	movlw	1
  1693   0017C2  245D               	addwf	lcd_4bit_intialize@lcd^0,w,c
  1694   0017C4  6E55               	movwf	gpio_pin_intialize@_pin_config^0,c
  1695   0017C6  0E00               	movlw	0
  1696   0017C8  205E               	addwfc	(lcd_4bit_intialize@lcd+1)^0,w,c
  1697   0017CA  6E56               	movwf	(gpio_pin_intialize@_pin_config+1)^0,c
  1698   0017CC  ECDB  F00D         	call	_gpio_pin_intialize	;wreg free
  1699   0017D0  6E62               	movwf	lcd_4bit_intialize@ret^0,c
  1700   0017D2                     
  1701                           ;ECU_Layer/Chr_LCD/ecu_chr_lcd.c: 85:         for(l_data_pins_counter = 0; l_data_pins_c
      +                          ounter < 4; l_data_pins_counter++)
  1702   0017D2  0E00               	movlw	0
  1703   0017D4  6E61               	movwf	lcd_4bit_intialize@l_data_pins_counter^0,c
  1704   0017D6                     l5038:
  1705   0017D6  5061               	movf	lcd_4bit_intialize@l_data_pins_counter^0,w,c
  1706   0017D8  245D               	addwf	lcd_4bit_intialize@lcd^0,w,c
  1707   0017DA  6E5F               	movwf	??_lcd_4bit_intialize^0,c
  1708   0017DC  0E00               	movlw	0
  1709   0017DE  205E               	addwfc	(lcd_4bit_intialize@lcd+1)^0,w,c
  1710   0017E0  6E60               	movwf	(??_lcd_4bit_intialize+1)^0,c
  1711   0017E2  0E02               	movlw	2
  1712   0017E4  245F               	addwf	??_lcd_4bit_intialize^0,w,c
  1713   0017E6  6E55               	movwf	gpio_pin_intialize@_pin_config^0,c
  1714   0017E8  0E00               	movlw	0
  1715   0017EA  2060               	addwfc	(??_lcd_4bit_intialize+1)^0,w,c
  1716   0017EC  6E56               	movwf	(gpio_pin_intialize@_pin_config+1)^0,c
  1717   0017EE  ECDB  F00D         	call	_gpio_pin_intialize	;wreg free
  1718   0017F2                     
  1719                           ;ECU_Layer/Chr_LCD/ecu_chr_lcd.c: 88:         }
  1720   0017F2  2A61               	incf	lcd_4bit_intialize@l_data_pins_counter^0,f,c
  1721   0017F4  0E03               	movlw	3
  1722   0017F6  6461               	cpfsgt	lcd_4bit_intialize@l_data_pins_counter^0,c
  1723   0017F8  EF00  F00C         	goto	u3241
  1724   0017FC  EF02  F00C         	goto	u3240
  1725   001800                     u3241:
  1726   001800  EFEB  F00B         	goto	l5038
  1727   001804                     u3240:
  1728   001804                     
  1729                           ;ECU_Layer/Chr_LCD/ecu_chr_lcd.c: 89:         _delay((unsigned long)((20)*(8000000UL/400
      +                          0.0)));
  1730   001804  0E34               	movlw	52
  1731   001806  6E5F               	movwf	??_lcd_4bit_intialize^0,c
  1732   001808  0EF2               	movlw	242
  1733   00180A                     u4207:
  1734   00180A  2EE8               	decfsz	wreg,f,c
  1735   00180C  D7FE               	bra	u4207
  1736   00180E  2E5F               	decfsz	??_lcd_4bit_intialize^0,f,c
  1737   001810  D7FC               	bra	u4207
  1738   001812  C05D  F059         	movff	lcd_4bit_intialize@lcd,lcd_4bit_send_command@lcd
  1739   001816  C05E  F05A         	movff	lcd_4bit_intialize@lcd+1,lcd_4bit_send_command@lcd+1
  1740   00181A  0E38               	movlw	56
  1741   00181C  6E5B               	movwf	lcd_4bit_send_command@command^0,c
  1742   00181E  ECA2  F00D         	call	_lcd_4bit_send_command	;wreg free
  1743   001822                     
  1744                           ;ECU_Layer/Chr_LCD/ecu_chr_lcd.c: 91:         _delay((unsigned long)((5)*(8000000UL/4000
      +                          .0)));
  1745   001822  0E0D               	movlw	13
  1746   001824  6E5F               	movwf	??_lcd_4bit_intialize^0,c
  1747   001826  0EFC               	movlw	252
  1748   001828                     u4217:
  1749   001828  2EE8               	decfsz	wreg,f,c
  1750   00182A  D7FE               	bra	u4217
  1751   00182C  2E5F               	decfsz	??_lcd_4bit_intialize^0,f,c
  1752   00182E  D7FC               	bra	u4217
  1753   001830  C05D  F059         	movff	lcd_4bit_intialize@lcd,lcd_4bit_send_command@lcd
  1754   001834  C05E  F05A         	movff	lcd_4bit_intialize@lcd+1,lcd_4bit_send_command@lcd+1
  1755   001838  0E38               	movlw	56
  1756   00183A  6E5B               	movwf	lcd_4bit_send_command@command^0,c
  1757   00183C  ECA2  F00D         	call	_lcd_4bit_send_command	;wreg free
  1758   001840                     
  1759                           ;ECU_Layer/Chr_LCD/ecu_chr_lcd.c: 93:         _delay((unsigned long)((150)*(8000000UL/40
      +                          00000.0)));
  1760   001840  0E64               	movlw	100
  1761   001842                     u4227:
  1762   001842  2EE8               	decfsz	wreg,f,c
  1763   001844  D7FE               	bra	u4227
  1764   001846  C05D  F059         	movff	lcd_4bit_intialize@lcd,lcd_4bit_send_command@lcd
  1765   00184A  C05E  F05A         	movff	lcd_4bit_intialize@lcd+1,lcd_4bit_send_command@lcd+1
  1766   00184E  0E38               	movlw	56
  1767   001850  6E5B               	movwf	lcd_4bit_send_command@command^0,c
  1768   001852  ECA2  F00D         	call	_lcd_4bit_send_command	;wreg free
  1769   001856  C05D  F059         	movff	lcd_4bit_intialize@lcd,lcd_4bit_send_command@lcd
  1770   00185A  C05E  F05A         	movff	lcd_4bit_intialize@lcd+1,lcd_4bit_send_command@lcd+1
  1771   00185E  0E01               	movlw	1
  1772   001860  6E5B               	movwf	lcd_4bit_send_command@command^0,c
  1773   001862  ECA2  F00D         	call	_lcd_4bit_send_command	;wreg free
  1774   001866  C05D  F059         	movff	lcd_4bit_intialize@lcd,lcd_4bit_send_command@lcd
  1775   00186A  C05E  F05A         	movff	lcd_4bit_intialize@lcd+1,lcd_4bit_send_command@lcd+1
  1776   00186E  0E02               	movlw	2
  1777   001870  6E5B               	movwf	lcd_4bit_send_command@command^0,c
  1778   001872  ECA2  F00D         	call	_lcd_4bit_send_command	;wreg free
  1779   001876  C05D  F059         	movff	lcd_4bit_intialize@lcd,lcd_4bit_send_command@lcd
  1780   00187A  C05E  F05A         	movff	lcd_4bit_intialize@lcd+1,lcd_4bit_send_command@lcd+1
  1781   00187E  0E06               	movlw	6
  1782   001880  6E5B               	movwf	lcd_4bit_send_command@command^0,c
  1783   001882  ECA2  F00D         	call	_lcd_4bit_send_command	;wreg free
  1784   001886  C05D  F059         	movff	lcd_4bit_intialize@lcd,lcd_4bit_send_command@lcd
  1785   00188A  C05E  F05A         	movff	lcd_4bit_intialize@lcd+1,lcd_4bit_send_command@lcd+1
  1786   00188E  0E0C               	movlw	12
  1787   001890  6E5B               	movwf	lcd_4bit_send_command@command^0,c
  1788   001892  ECA2  F00D         	call	_lcd_4bit_send_command	;wreg free
  1789   001896  C05D  F059         	movff	lcd_4bit_intialize@lcd,lcd_4bit_send_command@lcd
  1790   00189A  C05E  F05A         	movff	lcd_4bit_intialize@lcd+1,lcd_4bit_send_command@lcd+1
  1791   00189E  0E28               	movlw	40
  1792   0018A0  6E5B               	movwf	lcd_4bit_send_command@command^0,c
  1793   0018A2  ECA2  F00D         	call	_lcd_4bit_send_command	;wreg free
  1794   0018A6                     
  1795                           ;ECU_Layer/Chr_LCD/ecu_chr_lcd.c: 101:         ret = lcd_4bit_send_command(lcd, 0x80);
  1796   0018A6  C05D  F059         	movff	lcd_4bit_intialize@lcd,lcd_4bit_send_command@lcd
  1797   0018AA  C05E  F05A         	movff	lcd_4bit_intialize@lcd+1,lcd_4bit_send_command@lcd+1
  1798   0018AE  0E80               	movlw	128
  1799   0018B0  6E5B               	movwf	lcd_4bit_send_command@command^0,c
  1800   0018B2  ECA2  F00D         	call	_lcd_4bit_send_command	;wreg free
  1801   0018B6  6E62               	movwf	lcd_4bit_intialize@ret^0,c
  1802   0018B8                     l5066:
  1803                           
  1804                           ;ECU_Layer/Chr_LCD/ecu_chr_lcd.c: 103:     return ret;
  1805   0018B8  5062               	movf	lcd_4bit_intialize@ret^0,w,c
  1806   0018BA  0012               	return		;funcret
  1807   0018BC                     __end_of_lcd_4bit_intialize:
  1808                           	callstack 0
  1809                           
  1810 ;; *************** function _lcd_4bit_send_command *****************
  1811 ;; Defined at:
  1812 ;;		line 114 in file "ECU_Layer/Chr_LCD/ecu_chr_lcd.c"
  1813 ;; Parameters:    Size  Location     Type
  1814 ;;  lcd             2   15[COMRAM] PTR const struct .
  1815 ;;		 -> lcd_1(6), 
  1816 ;;  command         1   17[COMRAM] unsigned char 
  1817 ;; Auto vars:     Size  Location     Type
  1818 ;;  ret             1   18[COMRAM] unsigned char 
  1819 ;; Return value:  Size  Location     Type
  1820 ;;                  1    wreg      unsigned char 
  1821 ;; Registers used:
  1822 ;;		wreg, fsr2l, fsr2h, status,2, status,0, prodl, prodh, cstack
  1823 ;; Tracked objects:
  1824 ;;		On entry : 0/0
  1825 ;;		On exit  : 0/0
  1826 ;;		Unchanged: 0/0
  1827 ;; Data sizes:     COMRAM   BANK0   BANK1   BANK2   BANK3   BANK4   BANK5   BANK6   BANK7   BANK8   BANK9  BANK10  BANK1
      +1  BANK12  BANK13  BANK14  BANK15
  1828 ;;      Params:         3       0       0       0       0       0       0       0       0       0       0       0       
      +0       0       0       0       0
  1829 ;;      Locals:         1       0       0       0       0       0       0       0       0       0       0       0       
      +0       0       0       0       0
  1830 ;;      Temps:          0       0       0       0       0       0       0       0       0       0       0       0       
      +0       0       0       0       0
  1831 ;;      Totals:         4       0       0       0       0       0       0       0       0       0       0       0       
      +0       0       0       0       0
  1832 ;;Total ram usage:        4 bytes
  1833 ;; Hardware stack levels used: 1
  1834 ;; Hardware stack levels required when called: 4
  1835 ;; This function calls:
  1836 ;;		_gpio_pin_write_logic
  1837 ;;		_lcd_4bit_send_enable_signal
  1838 ;;		_lcd_send_4bits
  1839 ;; This function is called by:
  1840 ;;		_lcd_4bit_intialize
  1841 ;;		_lcd_4bit_send_custom_char
  1842 ;;		_lcd_4bit_set_cursor
  1843 ;; This function uses a non-reentrant model
  1844 ;;
  1845                           
  1846                           	psect	text10
  1847   001B44                     __ptext10:
  1848                           	callstack 0
  1849   001B44                     _lcd_4bit_send_command:
  1850                           	callstack 23
  1851   001B44                     
  1852                           ;ECU_Layer/Chr_LCD/ecu_chr_lcd.c: 117:     if(((void*)0) == lcd)
  1853   001B44  5059               	movf	lcd_4bit_send_command@lcd^0,w,c
  1854   001B46  105A               	iorwf	(lcd_4bit_send_command@lcd+1)^0,w,c
  1855   001B48  A4D8               	btfss	status,2,c
  1856   001B4A  EFA9  F00D         	goto	u3191
  1857   001B4E  EFAB  F00D         	goto	u3190
  1858   001B52                     u3191:
  1859   001B52  EFAF  F00D         	goto	l4992
  1860   001B56                     u3190:
  1861   001B56                     
  1862                           ;ECU_Layer/Chr_LCD/ecu_chr_lcd.c: 118:     {;ECU_Layer/Chr_LCD/ecu_chr_lcd.c: 119:      
      +                             ret = (Std_ReturnType)0x00;
  1863   001B56  0E00               	movlw	0
  1864   001B58  6E5C               	movwf	lcd_4bit_send_command@ret^0,c
  1865                           
  1866                           ;ECU_Layer/Chr_LCD/ecu_chr_lcd.c: 120:     }
  1867   001B5A  EFD9  F00D         	goto	l4994
  1868   001B5E                     l4992:
  1869                           
  1870                           ;ECU_Layer/Chr_LCD/ecu_chr_lcd.c: 122:     {;ECU_Layer/Chr_LCD/ecu_chr_lcd.c: 123:      
      +                             ret = gpio_pin_write_logic(&(lcd->lcd_rs), GPIO_LOW);
  1871   001B5E  C059  F04B         	movff	lcd_4bit_send_command@lcd,gpio_pin_write_logic@_pin_config
  1872   001B62  C05A  F04C         	movff	lcd_4bit_send_command@lcd+1,gpio_pin_write_logic@_pin_config+1
  1873   001B66  0E00               	movlw	0
  1874   001B68  6E4D               	movwf	gpio_pin_write_logic@logic^0,c
  1875   001B6A  ECA0  F00A         	call	_gpio_pin_write_logic	;wreg free
  1876   001B6E  6E5C               	movwf	lcd_4bit_send_command@ret^0,c
  1877                           
  1878                           ;ECU_Layer/Chr_LCD/ecu_chr_lcd.c: 124:         ret = lcd_send_4bits(lcd, command >> 4);
  1879   001B70  C059  F055         	movff	lcd_4bit_send_command@lcd,lcd_send_4bits@lcd
  1880   001B74  C05A  F056         	movff	lcd_4bit_send_command@lcd+1,lcd_send_4bits@lcd+1
  1881   001B78  385B               	swapf	lcd_4bit_send_command@command^0,w,c
  1882   001B7A  0B0F               	andlw	15
  1883   001B7C  6E57               	movwf	lcd_send_4bits@_data_command^0,c
  1884   001B7E  EC11  F00E         	call	_lcd_send_4bits	;wreg free
  1885   001B82  6E5C               	movwf	lcd_4bit_send_command@ret^0,c
  1886                           
  1887                           ;ECU_Layer/Chr_LCD/ecu_chr_lcd.c: 125:         ret = lcd_4bit_send_enable_signal(lcd);
  1888   001B84  C059  F055         	movff	lcd_4bit_send_command@lcd,lcd_4bit_send_enable_signal@lcd
  1889   001B88  C05A  F056         	movff	lcd_4bit_send_command@lcd+1,lcd_4bit_send_enable_signal@lcd+1
  1890   001B8C  ECD6  F00E         	call	_lcd_4bit_send_enable_signal	;wreg free
  1891   001B90  6E5C               	movwf	lcd_4bit_send_command@ret^0,c
  1892                           
  1893                           ;ECU_Layer/Chr_LCD/ecu_chr_lcd.c: 126:         ret = lcd_send_4bits(lcd, command);
  1894   001B92  C059  F055         	movff	lcd_4bit_send_command@lcd,lcd_send_4bits@lcd
  1895   001B96  C05A  F056         	movff	lcd_4bit_send_command@lcd+1,lcd_send_4bits@lcd+1
  1896   001B9A  C05B  F057         	movff	lcd_4bit_send_command@command,lcd_send_4bits@_data_command
  1897   001B9E  EC11  F00E         	call	_lcd_send_4bits	;wreg free
  1898   001BA2  6E5C               	movwf	lcd_4bit_send_command@ret^0,c
  1899                           
  1900                           ;ECU_Layer/Chr_LCD/ecu_chr_lcd.c: 127:         ret = lcd_4bit_send_enable_signal(lcd);
  1901   001BA4  C059  F055         	movff	lcd_4bit_send_command@lcd,lcd_4bit_send_enable_signal@lcd
  1902   001BA8  C05A  F056         	movff	lcd_4bit_send_command@lcd+1,lcd_4bit_send_enable_signal@lcd+1
  1903   001BAC  ECD6  F00E         	call	_lcd_4bit_send_enable_signal	;wreg free
  1904   001BB0  6E5C               	movwf	lcd_4bit_send_command@ret^0,c
  1905   001BB2                     l4994:
  1906                           
  1907                           ;ECU_Layer/Chr_LCD/ecu_chr_lcd.c: 129:     return ret;
  1908   001BB2  505C               	movf	lcd_4bit_send_command@ret^0,w,c
  1909   001BB4  0012               	return		;funcret
  1910   001BB6                     __end_of_lcd_4bit_send_command:
  1911                           	callstack 0
  1912                           
  1913 ;; *************** function _lcd_send_4bits *****************
  1914 ;; Defined at:
  1915 ;;		line 557 in file "ECU_Layer/Chr_LCD/ecu_chr_lcd.c"
  1916 ;; Parameters:    Size  Location     Type
  1917 ;;  lcd             2   11[COMRAM] PTR const struct .
  1918 ;;		 -> lcd_1(6), 
  1919 ;;  _data_comman    1   13[COMRAM] unsigned char 
  1920 ;; Auto vars:     Size  Location     Type
  1921 ;;  ret             1   14[COMRAM] unsigned char 
  1922 ;; Return value:  Size  Location     Type
  1923 ;;                  1    wreg      unsigned char 
  1924 ;; Registers used:
  1925 ;;		wreg, fsr2l, fsr2h, status,2, status,0, prodl, prodh, cstack
  1926 ;; Tracked objects:
  1927 ;;		On entry : 0/0
  1928 ;;		On exit  : 0/0
  1929 ;;		Unchanged: 0/0
  1930 ;; Data sizes:     COMRAM   BANK0   BANK1   BANK2   BANK3   BANK4   BANK5   BANK6   BANK7   BANK8   BANK9  BANK10  BANK1
      +1  BANK12  BANK13  BANK14  BANK15
  1931 ;;      Params:         3       0       0       0       0       0       0       0       0       0       0       0       
      +0       0       0       0       0
  1932 ;;      Locals:         1       0       0       0       0       0       0       0       0       0       0       0       
      +0       0       0       0       0
  1933 ;;      Temps:          0       0       0       0       0       0       0       0       0       0       0       0       
      +0       0       0       0       0
  1934 ;;      Totals:         4       0       0       0       0       0       0       0       0       0       0       0       
      +0       0       0       0       0
  1935 ;;Total ram usage:        4 bytes
  1936 ;; Hardware stack levels used: 1
  1937 ;; Hardware stack levels required when called: 3
  1938 ;; This function calls:
  1939 ;;		_gpio_pin_write_logic
  1940 ;; This function is called by:
  1941 ;;		_lcd_4bit_send_command
  1942 ;;		_lcd_4bit_send_char_data
  1943 ;; This function uses a non-reentrant model
  1944 ;;
  1945                           
  1946                           	psect	text11
  1947   001C22                     __ptext11:
  1948                           	callstack 0
  1949   001C22                     _lcd_send_4bits:
  1950                           	callstack 23
  1951   001C22  0E02               	movlw	2
  1952   001C24  2455               	addwf	lcd_send_4bits@lcd^0,w,c
  1953   001C26  6E4B               	movwf	gpio_pin_write_logic@_pin_config^0,c
  1954   001C28  0E00               	movlw	0
  1955   001C2A  2056               	addwfc	(lcd_send_4bits@lcd+1)^0,w,c
  1956   001C2C  6E4C               	movwf	(gpio_pin_write_logic@_pin_config+1)^0,c
  1957   001C2E  5057               	movf	lcd_send_4bits@_data_command^0,w,c
  1958   001C30  0B01               	andlw	1
  1959   001C32  6E4D               	movwf	gpio_pin_write_logic@logic^0,c
  1960   001C34  ECA0  F00A         	call	_gpio_pin_write_logic	;wreg free
  1961   001C38  0E03               	movlw	3
  1962   001C3A  2455               	addwf	lcd_send_4bits@lcd^0,w,c
  1963   001C3C  6E4B               	movwf	gpio_pin_write_logic@_pin_config^0,c
  1964   001C3E  0E00               	movlw	0
  1965   001C40  2056               	addwfc	(lcd_send_4bits@lcd+1)^0,w,c
  1966   001C42  6E4C               	movwf	(gpio_pin_write_logic@_pin_config+1)^0,c
  1967   001C44  90D8               	bcf	status,0,c
  1968   001C46  3057               	rrcf	lcd_send_4bits@_data_command^0,w,c
  1969   001C48  0B01               	andlw	1
  1970   001C4A  6E4D               	movwf	gpio_pin_write_logic@logic^0,c
  1971   001C4C  ECA0  F00A         	call	_gpio_pin_write_logic	;wreg free
  1972   001C50  0E04               	movlw	4
  1973   001C52  2455               	addwf	lcd_send_4bits@lcd^0,w,c
  1974   001C54  6E4B               	movwf	gpio_pin_write_logic@_pin_config^0,c
  1975   001C56  0E00               	movlw	0
  1976   001C58  2056               	addwfc	(lcd_send_4bits@lcd+1)^0,w,c
  1977   001C5A  6E4C               	movwf	(gpio_pin_write_logic@_pin_config+1)^0,c
  1978   001C5C  4057               	rrncf	lcd_send_4bits@_data_command^0,w,c
  1979   001C5E  42E8               	rrncf	wreg,f,c
  1980   001C60  0B3F               	andlw	63
  1981   001C62  0B01               	andlw	1
  1982   001C64  6E4D               	movwf	gpio_pin_write_logic@logic^0,c
  1983   001C66  ECA0  F00A         	call	_gpio_pin_write_logic	;wreg free
  1984   001C6A                     
  1985                           ;ECU_Layer/Chr_LCD/ecu_chr_lcd.c: 563:     ret = gpio_pin_write_logic(&(lcd->lcd_data[3]
      +                          ), (_data_command >> 3) & (uint8)0x01);
  1986   001C6A  0E05               	movlw	5
  1987   001C6C  2455               	addwf	lcd_send_4bits@lcd^0,w,c
  1988   001C6E  6E4B               	movwf	gpio_pin_write_logic@_pin_config^0,c
  1989   001C70  0E00               	movlw	0
  1990   001C72  2056               	addwfc	(lcd_send_4bits@lcd+1)^0,w,c
  1991   001C74  6E4C               	movwf	(gpio_pin_write_logic@_pin_config+1)^0,c
  1992   001C76  3857               	swapf	lcd_send_4bits@_data_command^0,w,c
  1993   001C78  46E8               	rlncf	wreg,f,c
  1994   001C7A  0B1F               	andlw	31
  1995   001C7C  0B01               	andlw	1
  1996   001C7E  6E4D               	movwf	gpio_pin_write_logic@logic^0,c
  1997   001C80  ECA0  F00A         	call	_gpio_pin_write_logic	;wreg free
  1998   001C84  6E58               	movwf	lcd_send_4bits@ret^0,c
  1999                           
  2000                           ;ECU_Layer/Chr_LCD/ecu_chr_lcd.c: 564:     return ret;
  2001   001C86  5058               	movf	lcd_send_4bits@ret^0,w,c
  2002   001C88  0012               	return		;funcret
  2003   001C8A                     __end_of_lcd_send_4bits:
  2004                           	callstack 0
  2005                           
  2006 ;; *************** function _lcd_4bit_send_enable_signal *****************
  2007 ;; Defined at:
  2008 ;;		line 574 in file "ECU_Layer/Chr_LCD/ecu_chr_lcd.c"
  2009 ;; Parameters:    Size  Location     Type
  2010 ;;  lcd             2   11[COMRAM] PTR const struct .
  2011 ;;		 -> lcd_1(6), 
  2012 ;; Auto vars:     Size  Location     Type
  2013 ;;  ret             1   13[COMRAM] unsigned char 
  2014 ;; Return value:  Size  Location     Type
  2015 ;;                  1    wreg      unsigned char 
  2016 ;; Registers used:
  2017 ;;		wreg, fsr2l, fsr2h, status,2, status,0, prodl, prodh, cstack
  2018 ;; Tracked objects:
  2019 ;;		On entry : 0/0
  2020 ;;		On exit  : 0/0
  2021 ;;		Unchanged: 0/0
  2022 ;; Data sizes:     COMRAM   BANK0   BANK1   BANK2   BANK3   BANK4   BANK5   BANK6   BANK7   BANK8   BANK9  BANK10  BANK1
      +1  BANK12  BANK13  BANK14  BANK15
  2023 ;;      Params:         2       0       0       0       0       0       0       0       0       0       0       0       
      +0       0       0       0       0
  2024 ;;      Locals:         1       0       0       0       0       0       0       0       0       0       0       0       
      +0       0       0       0       0
  2025 ;;      Temps:          0       0       0       0       0       0       0       0       0       0       0       0       
      +0       0       0       0       0
  2026 ;;      Totals:         3       0       0       0       0       0       0       0       0       0       0       0       
      +0       0       0       0       0
  2027 ;;Total ram usage:        3 bytes
  2028 ;; Hardware stack levels used: 1
  2029 ;; Hardware stack levels required when called: 3
  2030 ;; This function calls:
  2031 ;;		_gpio_pin_write_logic
  2032 ;; This function is called by:
  2033 ;;		_lcd_4bit_send_command
  2034 ;;		_lcd_4bit_send_char_data
  2035 ;; This function uses a non-reentrant model
  2036 ;;
  2037                           
  2038                           	psect	text12
  2039   001DAC                     __ptext12:
  2040                           	callstack 0
  2041   001DAC                     _lcd_4bit_send_enable_signal:
  2042                           	callstack 23
  2043   001DAC  0E01               	movlw	1
  2044   001DAE  2455               	addwf	lcd_4bit_send_enable_signal@lcd^0,w,c
  2045   001DB0  6E4B               	movwf	gpio_pin_write_logic@_pin_config^0,c
  2046   001DB2  0E00               	movlw	0
  2047   001DB4  2056               	addwfc	(lcd_4bit_send_enable_signal@lcd+1)^0,w,c
  2048   001DB6  6E4C               	movwf	(gpio_pin_write_logic@_pin_config+1)^0,c
  2049   001DB8  0E01               	movlw	1
  2050   001DBA  6E4D               	movwf	gpio_pin_write_logic@logic^0,c
  2051   001DBC  ECA0  F00A         	call	_gpio_pin_write_logic	;wreg free
  2052   001DC0                     
  2053                           ;ECU_Layer/Chr_LCD/ecu_chr_lcd.c: 578:     _delay((unsigned long)((5)*(8000000UL/4000000
      +                          .0)));
  2054   001DC0  0E03               	movlw	3
  2055   001DC2                     u4237:
  2056   001DC2  2EE8               	decfsz	wreg,f,c
  2057   001DC4  D7FE               	bra	u4237
  2058   001DC6  F000               	nop	
  2059   001DC8                     
  2060                           ;ECU_Layer/Chr_LCD/ecu_chr_lcd.c: 579:     ret = gpio_pin_write_logic(&(lcd->lcd_en), GP
      +                          IO_LOW);
  2061   001DC8  0E01               	movlw	1
  2062   001DCA  2455               	addwf	lcd_4bit_send_enable_signal@lcd^0,w,c
  2063   001DCC  6E4B               	movwf	gpio_pin_write_logic@_pin_config^0,c
  2064   001DCE  0E00               	movlw	0
  2065   001DD0  2056               	addwfc	(lcd_4bit_send_enable_signal@lcd+1)^0,w,c
  2066   001DD2  6E4C               	movwf	(gpio_pin_write_logic@_pin_config+1)^0,c
  2067   001DD4  0E00               	movlw	0
  2068   001DD6  6E4D               	movwf	gpio_pin_write_logic@logic^0,c
  2069   001DD8  ECA0  F00A         	call	_gpio_pin_write_logic	;wreg free
  2070   001DDC  6E57               	movwf	lcd_4bit_send_enable_signal@ret^0,c
  2071   001DDE                     
  2072                           ;ECU_Layer/Chr_LCD/ecu_chr_lcd.c: 580:     return ret;
  2073   001DDE  5057               	movf	lcd_4bit_send_enable_signal@ret^0,w,c
  2074   001DE0  0012               	return		;funcret
  2075   001DE2                     __end_of_lcd_4bit_send_enable_signal:
  2076                           	callstack 0
  2077                           
  2078 ;; *************** function _gpio_pin_intialize *****************
  2079 ;; Defined at:
  2080 ;;		line 167 in file "MCAL_Layer/GPIO/hal_gpio.c"
  2081 ;; Parameters:    Size  Location     Type
  2082 ;;  _pin_config     2   11[COMRAM] PTR const struct .
  2083 ;;		 -> lcd_2.lcd_data(8), lcd_2(10), lcd_1.lcd_data(4), lcd_1(6), 
  2084 ;;		 -> relay_initialize@pin_obj(1), led_initialize@pin_obj(1), 
  2085 ;; Auto vars:     Size  Location     Type
  2086 ;;  ret             1   14[COMRAM] unsigned char 
  2087 ;; Return value:  Size  Location     Type
  2088 ;;                  1    wreg      unsigned char 
  2089 ;; Registers used:
  2090 ;;		wreg, fsr2l, fsr2h, status,2, status,0, prodl, prodh, cstack
  2091 ;; Tracked objects:
  2092 ;;		On entry : 0/0
  2093 ;;		On exit  : 0/0
  2094 ;;		Unchanged: 0/0
  2095 ;; Data sizes:     COMRAM   BANK0   BANK1   BANK2   BANK3   BANK4   BANK5   BANK6   BANK7   BANK8   BANK9  BANK10  BANK1
      +1  BANK12  BANK13  BANK14  BANK15
  2096 ;;      Params:         2       0       0       0       0       0       0       0       0       0       0       0       
      +0       0       0       0       0
  2097 ;;      Locals:         1       0       0       0       0       0       0       0       0       0       0       0       
      +0       0       0       0       0
  2098 ;;      Temps:          1       0       0       0       0       0       0       0       0       0       0       0       
      +0       0       0       0       0
  2099 ;;      Totals:         4       0       0       0       0       0       0       0       0       0       0       0       
      +0       0       0       0       0
  2100 ;;Total ram usage:        4 bytes
  2101 ;; Hardware stack levels used: 1
  2102 ;; Hardware stack levels required when called: 3
  2103 ;; This function calls:
  2104 ;;		_gpio_pin_direction_intialize
  2105 ;;		_gpio_pin_write_logic
  2106 ;; This function is called by:
  2107 ;;		_lcd_4bit_intialize
  2108 ;;		_lcd_8bit_intialize
  2109 ;;		_led_initialize
  2110 ;;		_seven_segment_initialize
  2111 ;;		_dc_motor_initialize
  2112 ;;		_keypad_initialize
  2113 ;;		_relay_initialize
  2114 ;;		_CCP_Init
  2115 ;; This function uses a non-reentrant model
  2116 ;;
  2117                           
  2118                           	psect	text13
  2119   001BB6                     __ptext13:
  2120                           	callstack 0
  2121   001BB6                     _gpio_pin_intialize:
  2122                           	callstack 26
  2123   001BB6                     
  2124                           ;MCAL_Layer/GPIO/hal_gpio.c: 170:     if(((void*)0) == _pin_config || _pin_config->pin >
      +                           8 -1)
  2125   001BB6  5055               	movf	gpio_pin_intialize@_pin_config^0,w,c
  2126   001BB8  1056               	iorwf	(gpio_pin_intialize@_pin_config+1)^0,w,c
  2127   001BBA  B4D8               	btfsc	status,2,c
  2128   001BBC  EFE2  F00D         	goto	u3171
  2129   001BC0  EFE4  F00D         	goto	u3170
  2130   001BC4                     u3171:
  2131   001BC4  EFF5  F00D         	goto	l4978
  2132   001BC8                     u3170:
  2133   001BC8  C055  FFD9         	movff	gpio_pin_intialize@_pin_config,fsr2l
  2134   001BCC  C056  FFDA         	movff	gpio_pin_intialize@_pin_config+1,fsr2h
  2135   001BD0  30DF               	rrcf	223,w,c
  2136   001BD2  32E8               	rrcf	wreg,f,c
  2137   001BD4  32E8               	rrcf	wreg,f,c
  2138   001BD6  0B07               	andlw	7
  2139   001BD8  6E57               	movwf	??_gpio_pin_intialize^0,c
  2140   001BDA  0E07               	movlw	7
  2141   001BDC  6457               	cpfsgt	??_gpio_pin_intialize^0,c
  2142   001BDE  EFF3  F00D         	goto	u3181
  2143   001BE2  EFF5  F00D         	goto	u3180
  2144   001BE6                     u3181:
  2145   001BE6  EFF9  F00D         	goto	l4980
  2146   001BEA                     u3180:
  2147   001BEA                     l4978:
  2148                           
  2149                           ;MCAL_Layer/GPIO/hal_gpio.c: 171:     {;MCAL_Layer/GPIO/hal_gpio.c: 172:         ret = (
      +                          Std_ReturnType)0x00;
  2150   001BEA  0E00               	movlw	0
  2151   001BEC  6E58               	movwf	gpio_pin_intialize@ret^0,c
  2152                           
  2153                           ;MCAL_Layer/GPIO/hal_gpio.c: 173:     }
  2154   001BEE  EF0F  F00E         	goto	l4982
  2155   001BF2                     l4980:
  2156                           
  2157                           ;MCAL_Layer/GPIO/hal_gpio.c: 175:     {;MCAL_Layer/GPIO/hal_gpio.c: 176:         ret = g
      +                          pio_pin_direction_intialize(_pin_config);
  2158   001BF2  C055  F04B         	movff	gpio_pin_intialize@_pin_config,gpio_pin_direction_intialize@_pin_config
  2159   001BF6  C056  F04C         	movff	gpio_pin_intialize@_pin_config+1,gpio_pin_direction_intialize@_pin_config+1
  2160   001BFA  ECFE  F009         	call	_gpio_pin_direction_intialize	;wreg free
  2161   001BFE  6E58               	movwf	gpio_pin_intialize@ret^0,c
  2162                           
  2163                           ;MCAL_Layer/GPIO/hal_gpio.c: 177:         ret = gpio_pin_write_logic(_pin_config, _pin_c
      +                          onfig->logic);
  2164   001C00  C055  F04B         	movff	gpio_pin_intialize@_pin_config,gpio_pin_write_logic@_pin_config
  2165   001C04  C056  F04C         	movff	gpio_pin_intialize@_pin_config+1,gpio_pin_write_logic@_pin_config+1
  2166   001C08  C055  FFD9         	movff	gpio_pin_intialize@_pin_config,fsr2l
  2167   001C0C  C056  FFDA         	movff	gpio_pin_intialize@_pin_config+1,fsr2h
  2168   001C10  0E00               	movlw	0
  2169   001C12  BEDF               	btfsc	indf2,7,c
  2170   001C14  0E01               	movlw	1
  2171   001C16  6E4D               	movwf	gpio_pin_write_logic@logic^0,c
  2172   001C18  ECA0  F00A         	call	_gpio_pin_write_logic	;wreg free
  2173   001C1C  6E58               	movwf	gpio_pin_intialize@ret^0,c
  2174   001C1E                     l4982:
  2175                           
  2176                           ;MCAL_Layer/GPIO/hal_gpio.c: 179:     return ret;
  2177   001C1E  5058               	movf	gpio_pin_intialize@ret^0,w,c
  2178   001C20  0012               	return		;funcret
  2179   001C22                     __end_of_gpio_pin_intialize:
  2180                           	callstack 0
  2181                           
  2182 ;; *************** function _gpio_pin_write_logic *****************
  2183 ;; Defined at:
  2184 ;;		line 88 in file "MCAL_Layer/GPIO/hal_gpio.c"
  2185 ;; Parameters:    Size  Location     Type
  2186 ;;  _pin_config     2    1[COMRAM] PTR const struct .
  2187 ;;		 -> lcd_2.lcd_data(8), lcd_2(10), lcd_1.lcd_data(4), lcd_1(6), 
  2188 ;;		 -> relay_turn_off@pin_obj(1), relay_turn_on@pin_obj(1), relay_initialize@pin_obj(1), led_turn_off@pin_obj(1), 
  2189 ;;		 -> led_turn_on@pin_obj(1), led_initialize@pin_obj(1), 
  2190 ;;  logic           1    3[COMRAM] enum E2968
  2191 ;; Auto vars:     Size  Location     Type
  2192 ;;  ret             1   10[COMRAM] unsigned char 
  2193 ;; Return value:  Size  Location     Type
  2194 ;;                  1    wreg      unsigned char 
  2195 ;; Registers used:
  2196 ;;		wreg, fsr2l, fsr2h, status,2, status,0, prodl, prodh
  2197 ;; Tracked objects:
  2198 ;;		On entry : 0/0
  2199 ;;		On exit  : 0/0
  2200 ;;		Unchanged: 0/0
  2201 ;; Data sizes:     COMRAM   BANK0   BANK1   BANK2   BANK3   BANK4   BANK5   BANK6   BANK7   BANK8   BANK9  BANK10  BANK1
      +1  BANK12  BANK13  BANK14  BANK15
  2202 ;;      Params:         3       0       0       0       0       0       0       0       0       0       0       0       
      +0       0       0       0       0
  2203 ;;      Locals:         1       0       0       0       0       0       0       0       0       0       0       0       
      +0       0       0       0       0
  2204 ;;      Temps:          6       0       0       0       0       0       0       0       0       0       0       0       
      +0       0       0       0       0
  2205 ;;      Totals:        10       0       0       0       0       0       0       0       0       0       0       0       
      +0       0       0       0       0
  2206 ;;Total ram usage:       10 bytes
  2207 ;; Hardware stack levels used: 1
  2208 ;; Hardware stack levels required when called: 2
  2209 ;; This function calls:
  2210 ;;		Nothing
  2211 ;; This function is called by:
  2212 ;;		_lcd_4bit_send_command
  2213 ;;		_lcd_8bit_send_command
  2214 ;;		_lcd_send_4bits
  2215 ;;		_lcd_4bit_send_enable_signal
  2216 ;;		_lcd_8bit_send_enable_signal
  2217 ;;		_led_turn_on
  2218 ;;		_led_turn_off
  2219 ;;		_gpio_pin_intialize
  2220 ;;		_seven_segment_write_number
  2221 ;;		_lcd_4bit_send_char_data
  2222 ;;		_lcd_8bit_send_char_data
  2223 ;;		_dc_motor_move_right
  2224 ;;		_dc_motor_move_left
  2225 ;;		_dc_motor_stop
  2226 ;;		_keypad_get_value
  2227 ;;		_relay_turn_on
  2228 ;;		_relay_turn_off
  2229 ;; This function uses a non-reentrant model
  2230 ;;
  2231                           
  2232                           	psect	text14
  2233   001540                     __ptext14:
  2234                           	callstack 0
  2235   001540                     _gpio_pin_write_logic:
  2236                           	callstack 27
  2237   001540                     
  2238                           ;MCAL_Layer/GPIO/hal_gpio.c: 88: Std_ReturnType gpio_pin_write_logic(const pin_config_t 
      +                          *_pin_config, logic_t logic);MCAL_Layer/GPIO/hal_gpio.c: 89: {;MCAL_Layer/GPIO/hal_gpio.
      +                          c: 90:     Std_ReturnType ret = (Std_ReturnType)0x01;
  2239   001540  0E01               	movlw	1
  2240   001542  6E54               	movwf	gpio_pin_write_logic@ret^0,c
  2241   001544                     
  2242                           ;MCAL_Layer/GPIO/hal_gpio.c: 91:     if(((void*)0) == _pin_config || _pin_config->pin > 
      +                          8 -1)
  2243   001544  504B               	movf	gpio_pin_write_logic@_pin_config^0,w,c
  2244   001546  104C               	iorwf	(gpio_pin_write_logic@_pin_config+1)^0,w,c
  2245   001548  B4D8               	btfsc	status,2,c
  2246   00154A  EFA9  F00A         	goto	u3071
  2247   00154E  EFAB  F00A         	goto	u3070
  2248   001552                     u3071:
  2249   001552  EFBC  F00A         	goto	l4894
  2250   001556                     u3070:
  2251   001556  C04B  FFD9         	movff	gpio_pin_write_logic@_pin_config,fsr2l
  2252   00155A  C04C  FFDA         	movff	gpio_pin_write_logic@_pin_config+1,fsr2h
  2253   00155E  30DF               	rrcf	223,w,c
  2254   001560  32E8               	rrcf	wreg,f,c
  2255   001562  32E8               	rrcf	wreg,f,c
  2256   001564  0B07               	andlw	7
  2257   001566  6E4E               	movwf	??_gpio_pin_write_logic^0,c
  2258   001568  0E07               	movlw	7
  2259   00156A  644E               	cpfsgt	??_gpio_pin_write_logic^0,c
  2260   00156C  EFBA  F00A         	goto	u3081
  2261   001570  EFBC  F00A         	goto	u3080
  2262   001574                     u3081:
  2263   001574  EF1F  F00B         	goto	l4902
  2264   001578                     u3080:
  2265   001578                     l4894:
  2266                           
  2267                           ;MCAL_Layer/GPIO/hal_gpio.c: 92:     {;MCAL_Layer/GPIO/hal_gpio.c: 93:         ret = (St
      +                          d_ReturnType)0x00;
  2268   001578  0E00               	movlw	0
  2269   00157A  6E54               	movwf	gpio_pin_write_logic@ret^0,c
  2270                           
  2271                           ;MCAL_Layer/GPIO/hal_gpio.c: 94:     }
  2272   00157C  EF34  F00B         	goto	l4904
  2273   001580                     l4896:
  2274                           
  2275                           ;MCAL_Layer/GPIO/hal_gpio.c: 100:                 (*lat_registers[_pin_config->port] &= 
      +                          ~((uint8)1 << _pin_config->pin));
  2276   001580  C04B  FFD9         	movff	gpio_pin_write_logic@_pin_config,fsr2l
  2277   001584  C04C  FFDA         	movff	gpio_pin_write_logic@_pin_config+1,fsr2h
  2278   001588  30DF               	rrcf	223,w,c
  2279   00158A  32E8               	rrcf	wreg,f,c
  2280   00158C  32E8               	rrcf	wreg,f,c
  2281   00158E  0B07               	andlw	7
  2282   001590  6E4E               	movwf	??_gpio_pin_write_logic^0,c
  2283   001592  0E01               	movlw	1
  2284   001594  6E4F               	movwf	(??_gpio_pin_write_logic+1)^0,c
  2285   001596  2A4E               	incf	??_gpio_pin_write_logic^0,f,c
  2286   001598  EFD0  F00A         	goto	u3094
  2287   00159C                     u3095:
  2288   00159C  90D8               	bcf	status,0,c
  2289   00159E  364F               	rlcf	(??_gpio_pin_write_logic+1)^0,f,c
  2290   0015A0                     u3094:
  2291   0015A0  2E4E               	decfsz	??_gpio_pin_write_logic^0,f,c
  2292   0015A2  EFCE  F00A         	goto	u3095
  2293   0015A6  504F               	movf	(??_gpio_pin_write_logic+1)^0,w,c
  2294   0015A8  0AFF               	xorlw	255
  2295   0015AA  6E50               	movwf	(??_gpio_pin_write_logic+2)^0,c
  2296   0015AC  C04B  FFD9         	movff	gpio_pin_write_logic@_pin_config,fsr2l
  2297   0015B0  C04C  FFDA         	movff	gpio_pin_write_logic@_pin_config+1,fsr2h
  2298   0015B4  50DF               	movf	223,w,c
  2299   0015B6  0B07               	andlw	7
  2300   0015B8  6E51               	movwf	(??_gpio_pin_write_logic+3)^0,c
  2301   0015BA  5051               	movf	(??_gpio_pin_write_logic+3)^0,w,c
  2302   0015BC  0D02               	mullw	2
  2303   0015BE  0E67               	movlw	low _lat_registers
  2304   0015C0  24F3               	addwf	243,w,c
  2305   0015C2  6ED9               	movwf	fsr2l,c
  2306   0015C4  0E00               	movlw	high _lat_registers
  2307   0015C6  20F4               	addwfc	prodh,w,c
  2308   0015C8  6EDA               	movwf	fsr2h,c
  2309   0015CA  CFDE F052          	movff	postinc2,??_gpio_pin_write_logic+4
  2310   0015CE  CFDD F053          	movff	postdec2,??_gpio_pin_write_logic+5
  2311   0015D2  C052  FFD9         	movff	??_gpio_pin_write_logic+4,fsr2l
  2312   0015D6  C053  FFDA         	movff	??_gpio_pin_write_logic+5,fsr2h
  2313   0015DA  5050               	movf	(??_gpio_pin_write_logic+2)^0,w,c
  2314   0015DC  16DF               	andwf	indf2,f,c
  2315                           
  2316                           ;MCAL_Layer/GPIO/hal_gpio.c: 101:                 break;
  2317   0015DE  EF34  F00B         	goto	l4904
  2318   0015E2                     l4898:
  2319                           
  2320                           ;MCAL_Layer/GPIO/hal_gpio.c: 103:                 (*lat_registers[_pin_config->port] |= 
      +                          ((uint8)1 << _pin_config->pin));
  2321   0015E2  C04B  FFD9         	movff	gpio_pin_write_logic@_pin_config,fsr2l
  2322   0015E6  C04C  FFDA         	movff	gpio_pin_write_logic@_pin_config+1,fsr2h
  2323   0015EA  30DF               	rrcf	223,w,c
  2324   0015EC  32E8               	rrcf	wreg,f,c
  2325   0015EE  32E8               	rrcf	wreg,f,c
  2326   0015F0  0B07               	andlw	7
  2327   0015F2  6E4E               	movwf	??_gpio_pin_write_logic^0,c
  2328   0015F4  0E01               	movlw	1
  2329   0015F6  6E4F               	movwf	(??_gpio_pin_write_logic+1)^0,c
  2330   0015F8  2A4E               	incf	??_gpio_pin_write_logic^0,f,c
  2331   0015FA  EF01  F00B         	goto	u3104
  2332   0015FE                     u3105:
  2333   0015FE  90D8               	bcf	status,0,c
  2334   001600  364F               	rlcf	(??_gpio_pin_write_logic+1)^0,f,c
  2335   001602                     u3104:
  2336   001602  2E4E               	decfsz	??_gpio_pin_write_logic^0,f,c
  2337   001604  EFFF  F00A         	goto	u3105
  2338   001608  C04B  FFD9         	movff	gpio_pin_write_logic@_pin_config,fsr2l
  2339   00160C  C04C  FFDA         	movff	gpio_pin_write_logic@_pin_config+1,fsr2h
  2340   001610  50DF               	movf	223,w,c
  2341   001612  0B07               	andlw	7
  2342   001614  6E50               	movwf	(??_gpio_pin_write_logic+2)^0,c
  2343   001616  5050               	movf	(??_gpio_pin_write_logic+2)^0,w,c
  2344   001618  0D02               	mullw	2
  2345   00161A  0E67               	movlw	low _lat_registers
  2346   00161C  24F3               	addwf	243,w,c
  2347   00161E  6ED9               	movwf	fsr2l,c
  2348   001620  0E00               	movlw	high _lat_registers
  2349   001622  20F4               	addwfc	prodh,w,c
  2350   001624  6EDA               	movwf	fsr2h,c
  2351   001626  CFDE F051          	movff	postinc2,??_gpio_pin_write_logic+3
  2352   00162A  CFDD F052          	movff	postdec2,??_gpio_pin_write_logic+4
  2353   00162E  C051  FFD9         	movff	??_gpio_pin_write_logic+3,fsr2l
  2354   001632  C052  FFDA         	movff	??_gpio_pin_write_logic+4,fsr2h
  2355   001636  504F               	movf	(??_gpio_pin_write_logic+1)^0,w,c
  2356   001638  12DF               	iorwf	indf2,f,c
  2357                           
  2358                           ;MCAL_Layer/GPIO/hal_gpio.c: 104:                 break;
  2359   00163A  EF34  F00B         	goto	l4904
  2360   00163E                     l4902:
  2361   00163E  504D               	movf	gpio_pin_write_logic@logic^0,w,c
  2362   001640  6E4E               	movwf	??_gpio_pin_write_logic^0,c
  2363   001642  6A4F               	clrf	(??_gpio_pin_write_logic+1)^0,c
  2364                           
  2365                           ; Switch on 2 bytes has been partitioned into a top level switch of size 1, and 1 sub-sw
      +                          itches
  2366                           ; Switch size 1, requested type "simple"
  2367                           ; Number of cases is 1, Range of values is 0 to 0
  2368                           ; switch strategies available:
  2369                           ; Name         Instructions Cycles
  2370                           ; simple_byte            4     3 (average)
  2371                           ;	Chosen strategy is simple_byte
  2372   001644  504F               	movf	(??_gpio_pin_write_logic+1)^0,w,c
  2373   001646  0A00               	xorlw	0	; case 0
  2374   001648  B4D8               	btfsc	status,2,c
  2375   00164A  EF29  F00B         	goto	l5998
  2376   00164E  EFBC  F00A         	goto	l4894
  2377   001652                     l5998:
  2378                           
  2379                           ; Switch size 1, requested type "simple"
  2380                           ; Number of cases is 2, Range of values is 0 to 1
  2381                           ; switch strategies available:
  2382                           ; Name         Instructions Cycles
  2383                           ; simple_byte            7     4 (average)
  2384                           ;	Chosen strategy is simple_byte
  2385   001652  504E               	movf	??_gpio_pin_write_logic^0,w,c
  2386   001654  0A00               	xorlw	0	; case 0
  2387   001656  B4D8               	btfsc	status,2,c
  2388   001658  EFC0  F00A         	goto	l4896
  2389   00165C  0A01               	xorlw	1	; case 1
  2390   00165E  B4D8               	btfsc	status,2,c
  2391   001660  EFF1  F00A         	goto	l4898
  2392   001664  EFBC  F00A         	goto	l4894
  2393   001668                     l4904:
  2394                           
  2395                           ;MCAL_Layer/GPIO/hal_gpio.c: 108:     return ret;
  2396   001668  5054               	movf	gpio_pin_write_logic@ret^0,w,c
  2397   00166A  0012               	return		;funcret
  2398   00166C                     __end_of_gpio_pin_write_logic:
  2399                           	callstack 0
  2400                           
  2401 ;; *************** function _gpio_pin_direction_intialize *****************
  2402 ;; Defined at:
  2403 ;;		line 31 in file "MCAL_Layer/GPIO/hal_gpio.c"
  2404 ;; Parameters:    Size  Location     Type
  2405 ;;  _pin_config     2    1[COMRAM] PTR const struct .
  2406 ;;		 -> lcd_2.lcd_data(8), lcd_2(10), lcd_1.lcd_data(4), lcd_1(6), 
  2407 ;;		 -> relay_initialize@pin_obj(1), led_initialize@pin_obj(1), 
  2408 ;; Auto vars:     Size  Location     Type
  2409 ;;  ret             1    9[COMRAM] unsigned char 
  2410 ;; Return value:  Size  Location     Type
  2411 ;;                  1    wreg      unsigned char 
  2412 ;; Registers used:
  2413 ;;		wreg, fsr2l, fsr2h, status,2, status,0, prodl, prodh
  2414 ;; Tracked objects:
  2415 ;;		On entry : 0/0
  2416 ;;		On exit  : 0/0
  2417 ;;		Unchanged: 0/0
  2418 ;; Data sizes:     COMRAM   BANK0   BANK1   BANK2   BANK3   BANK4   BANK5   BANK6   BANK7   BANK8   BANK9  BANK10  BANK1
      +1  BANK12  BANK13  BANK14  BANK15
  2419 ;;      Params:         2       0       0       0       0       0       0       0       0       0       0       0       
      +0       0       0       0       0
  2420 ;;      Locals:         1       0       0       0       0       0       0       0       0       0       0       0       
      +0       0       0       0       0
  2421 ;;      Temps:          6       0       0       0       0       0       0       0       0       0       0       0       
      +0       0       0       0       0
  2422 ;;      Totals:         9       0       0       0       0       0       0       0       0       0       0       0       
      +0       0       0       0       0
  2423 ;;Total ram usage:        9 bytes
  2424 ;; Hardware stack levels used: 1
  2425 ;; Hardware stack levels required when called: 2
  2426 ;; This function calls:
  2427 ;;		Nothing
  2428 ;; This function is called by:
  2429 ;;		_gpio_pin_intialize
  2430 ;;		_button_initialize
  2431 ;;		_keypad_initialize
  2432 ;;		_Interrupt_RBx_Init
  2433 ;;		_Interrupt_INTx_Pin_Init
  2434 ;; This function uses a non-reentrant model
  2435 ;;
  2436                           
  2437                           	psect	text15
  2438   0013FC                     __ptext15:
  2439                           	callstack 0
  2440   0013FC                     _gpio_pin_direction_intialize:
  2441                           	callstack 26
  2442   0013FC                     
  2443                           ;MCAL_Layer/GPIO/hal_gpio.c: 31: Std_ReturnType gpio_pin_direction_intialize(const pin_c
      +                          onfig_t *_pin_config);MCAL_Layer/GPIO/hal_gpio.c: 32: {;MCAL_Layer/GPIO/hal_gpio.c: 33: 
      +                              Std_ReturnType ret = (Std_ReturnType)0x01;
  2444   0013FC  0E01               	movlw	1
  2445   0013FE  6E53               	movwf	gpio_pin_direction_intialize@ret^0,c
  2446   001400                     
  2447                           ;MCAL_Layer/GPIO/hal_gpio.c: 34:     if(((void*)0) == _pin_config || _pin_config->pin > 
      +                          8 -1)
  2448   001400  504B               	movf	gpio_pin_direction_intialize@_pin_config^0,w,c
  2449   001402  104C               	iorwf	(gpio_pin_direction_intialize@_pin_config+1)^0,w,c
  2450   001404  B4D8               	btfsc	status,2,c
  2451   001406  EF07  F00A         	goto	u3111
  2452   00140A  EF09  F00A         	goto	u3110
  2453   00140E                     u3111:
  2454   00140E  EF1A  F00A         	goto	l4918
  2455   001412                     u3110:
  2456   001412  C04B  FFD9         	movff	gpio_pin_direction_intialize@_pin_config,fsr2l
  2457   001416  C04C  FFDA         	movff	gpio_pin_direction_intialize@_pin_config+1,fsr2h
  2458   00141A  30DF               	rrcf	223,w,c
  2459   00141C  32E8               	rrcf	wreg,f,c
  2460   00141E  32E8               	rrcf	wreg,f,c
  2461   001420  0B07               	andlw	7
  2462   001422  6E4D               	movwf	??_gpio_pin_direction_intialize^0,c
  2463   001424  0E07               	movlw	7
  2464   001426  644D               	cpfsgt	??_gpio_pin_direction_intialize^0,c
  2465   001428  EF18  F00A         	goto	u3121
  2466   00142C  EF1A  F00A         	goto	u3120
  2467   001430                     u3121:
  2468   001430  EF7D  F00A         	goto	l4926
  2469   001434                     u3120:
  2470   001434                     l4918:
  2471                           
  2472                           ;MCAL_Layer/GPIO/hal_gpio.c: 35:     {;MCAL_Layer/GPIO/hal_gpio.c: 36:         ret = (St
      +                          d_ReturnType)0x00;
  2473   001434  0E00               	movlw	0
  2474   001436  6E53               	movwf	gpio_pin_direction_intialize@ret^0,c
  2475                           
  2476                           ;MCAL_Layer/GPIO/hal_gpio.c: 37:     }
  2477   001438  EF9E  F00A         	goto	l4928
  2478   00143C                     l4920:
  2479                           
  2480                           ;MCAL_Layer/GPIO/hal_gpio.c: 43:                 (*tris_registers[_pin_config->port] &= 
      +                          ~((uint8)1 << _pin_config->pin));
  2481   00143C  C04B  FFD9         	movff	gpio_pin_direction_intialize@_pin_config,fsr2l
  2482   001440  C04C  FFDA         	movff	gpio_pin_direction_intialize@_pin_config+1,fsr2h
  2483   001444  30DF               	rrcf	223,w,c
  2484   001446  32E8               	rrcf	wreg,f,c
  2485   001448  32E8               	rrcf	wreg,f,c
  2486   00144A  0B07               	andlw	7
  2487   00144C  6E4D               	movwf	??_gpio_pin_direction_intialize^0,c
  2488   00144E  0E01               	movlw	1
  2489   001450  6E4E               	movwf	(??_gpio_pin_direction_intialize+1)^0,c
  2490   001452  2A4D               	incf	??_gpio_pin_direction_intialize^0,f,c
  2491   001454  EF2E  F00A         	goto	u3134
  2492   001458                     u3135:
  2493   001458  90D8               	bcf	status,0,c
  2494   00145A  364E               	rlcf	(??_gpio_pin_direction_intialize+1)^0,f,c
  2495   00145C                     u3134:
  2496   00145C  2E4D               	decfsz	??_gpio_pin_direction_intialize^0,f,c
  2497   00145E  EF2C  F00A         	goto	u3135
  2498   001462  504E               	movf	(??_gpio_pin_direction_intialize+1)^0,w,c
  2499   001464  0AFF               	xorlw	255
  2500   001466  6E4F               	movwf	(??_gpio_pin_direction_intialize+2)^0,c
  2501   001468  C04B  FFD9         	movff	gpio_pin_direction_intialize@_pin_config,fsr2l
  2502   00146C  C04C  FFDA         	movff	gpio_pin_direction_intialize@_pin_config+1,fsr2h
  2503   001470  50DF               	movf	223,w,c
  2504   001472  0B07               	andlw	7
  2505   001474  6E50               	movwf	(??_gpio_pin_direction_intialize+3)^0,c
  2506   001476  5050               	movf	(??_gpio_pin_direction_intialize+3)^0,w,c
  2507   001478  0D02               	mullw	2
  2508   00147A  0E8A               	movlw	low _tris_registers
  2509   00147C  24F3               	addwf	243,w,c
  2510   00147E  6ED9               	movwf	fsr2l,c
  2511   001480  0E00               	movlw	high _tris_registers
  2512   001482  20F4               	addwfc	prodh,w,c
  2513   001484  6EDA               	movwf	fsr2h,c
  2514   001486  CFDE F051          	movff	postinc2,??_gpio_pin_direction_intialize+4
  2515   00148A  CFDD F052          	movff	postdec2,??_gpio_pin_direction_intialize+5
  2516   00148E  C051  FFD9         	movff	??_gpio_pin_direction_intialize+4,fsr2l
  2517   001492  C052  FFDA         	movff	??_gpio_pin_direction_intialize+5,fsr2h
  2518   001496  504F               	movf	(??_gpio_pin_direction_intialize+2)^0,w,c
  2519   001498  16DF               	andwf	indf2,f,c
  2520                           
  2521                           ;MCAL_Layer/GPIO/hal_gpio.c: 44:                 break;
  2522   00149A  EF9E  F00A         	goto	l4928
  2523   00149E                     l4922:
  2524                           
  2525                           ;MCAL_Layer/GPIO/hal_gpio.c: 46:                 (*tris_registers[_pin_config->port] |= 
      +                          ((uint8)1 << _pin_config->pin));
  2526   00149E  C04B  FFD9         	movff	gpio_pin_direction_intialize@_pin_config,fsr2l
  2527   0014A2  C04C  FFDA         	movff	gpio_pin_direction_intialize@_pin_config+1,fsr2h
  2528   0014A6  30DF               	rrcf	223,w,c
  2529   0014A8  32E8               	rrcf	wreg,f,c
  2530   0014AA  32E8               	rrcf	wreg,f,c
  2531   0014AC  0B07               	andlw	7
  2532   0014AE  6E4D               	movwf	??_gpio_pin_direction_intialize^0,c
  2533   0014B0  0E01               	movlw	1
  2534   0014B2  6E4E               	movwf	(??_gpio_pin_direction_intialize+1)^0,c
  2535   0014B4  2A4D               	incf	??_gpio_pin_direction_intialize^0,f,c
  2536   0014B6  EF5F  F00A         	goto	u3144
  2537   0014BA                     u3145:
  2538   0014BA  90D8               	bcf	status,0,c
  2539   0014BC  364E               	rlcf	(??_gpio_pin_direction_intialize+1)^0,f,c
  2540   0014BE                     u3144:
  2541   0014BE  2E4D               	decfsz	??_gpio_pin_direction_intialize^0,f,c
  2542   0014C0  EF5D  F00A         	goto	u3145
  2543   0014C4  C04B  FFD9         	movff	gpio_pin_direction_intialize@_pin_config,fsr2l
  2544   0014C8  C04C  FFDA         	movff	gpio_pin_direction_intialize@_pin_config+1,fsr2h
  2545   0014CC  50DF               	movf	223,w,c
  2546   0014CE  0B07               	andlw	7
  2547   0014D0  6E4F               	movwf	(??_gpio_pin_direction_intialize+2)^0,c
  2548   0014D2  504F               	movf	(??_gpio_pin_direction_intialize+2)^0,w,c
  2549   0014D4  0D02               	mullw	2
  2550   0014D6  0E8A               	movlw	low _tris_registers
  2551   0014D8  24F3               	addwf	243,w,c
  2552   0014DA  6ED9               	movwf	fsr2l,c
  2553   0014DC  0E00               	movlw	high _tris_registers
  2554   0014DE  20F4               	addwfc	prodh,w,c
  2555   0014E0  6EDA               	movwf	fsr2h,c
  2556   0014E2  CFDE F050          	movff	postinc2,??_gpio_pin_direction_intialize+3
  2557   0014E6  CFDD F051          	movff	postdec2,??_gpio_pin_direction_intialize+4
  2558   0014EA  C050  FFD9         	movff	??_gpio_pin_direction_intialize+3,fsr2l
  2559   0014EE  C051  FFDA         	movff	??_gpio_pin_direction_intialize+4,fsr2h
  2560   0014F2  504E               	movf	(??_gpio_pin_direction_intialize+1)^0,w,c
  2561   0014F4  12DF               	iorwf	indf2,f,c
  2562                           
  2563                           ;MCAL_Layer/GPIO/hal_gpio.c: 47:                 break;
  2564   0014F6  EF9E  F00A         	goto	l4928
  2565   0014FA                     l4926:
  2566   0014FA  C04B  FFD9         	movff	gpio_pin_direction_intialize@_pin_config,fsr2l
  2567   0014FE  C04C  FFDA         	movff	gpio_pin_direction_intialize@_pin_config+1,fsr2h
  2568   001502  BCDF               	btfsc	indf2,6,c
  2569   001504  EF86  F00A         	goto	u3151
  2570   001508  EF89  F00A         	goto	u3150
  2571   00150C                     u3151:
  2572   00150C  0E01               	movlw	1
  2573   00150E  EF8A  F00A         	goto	u3160
  2574   001512                     u3150:
  2575   001512  0E00               	movlw	0
  2576   001514                     u3160:
  2577   001514  6E4D               	movwf	??_gpio_pin_direction_intialize^0,c
  2578   001516  6A4E               	clrf	(??_gpio_pin_direction_intialize+1)^0,c
  2579                           
  2580                           ; Switch on 2 bytes has been partitioned into a top level switch of size 1, and 1 sub-sw
      +                          itches
  2581                           ; Switch size 1, requested type "simple"
  2582                           ; Number of cases is 1, Range of values is 0 to 0
  2583                           ; switch strategies available:
  2584                           ; Name         Instructions Cycles
  2585                           ; simple_byte            4     3 (average)
  2586                           ;	Chosen strategy is simple_byte
  2587   001518  504E               	movf	(??_gpio_pin_direction_intialize+1)^0,w,c
  2588   00151A  0A00               	xorlw	0	; case 0
  2589   00151C  B4D8               	btfsc	status,2,c
  2590   00151E  EF93  F00A         	goto	l6000
  2591   001522  EF1A  F00A         	goto	l4918
  2592   001526                     l6000:
  2593                           
  2594                           ; Switch size 1, requested type "simple"
  2595                           ; Number of cases is 2, Range of values is 0 to 1
  2596                           ; switch strategies available:
  2597                           ; Name         Instructions Cycles
  2598                           ; simple_byte            7     4 (average)
  2599                           ;	Chosen strategy is simple_byte
  2600   001526  504D               	movf	??_gpio_pin_direction_intialize^0,w,c
  2601   001528  0A00               	xorlw	0	; case 0
  2602   00152A  B4D8               	btfsc	status,2,c
  2603   00152C  EF1E  F00A         	goto	l4920
  2604   001530  0A01               	xorlw	1	; case 1
  2605   001532  B4D8               	btfsc	status,2,c
  2606   001534  EF4F  F00A         	goto	l4922
  2607   001538  EF1A  F00A         	goto	l4918
  2608   00153C                     l4928:
  2609                           
  2610                           ;MCAL_Layer/GPIO/hal_gpio.c: 51:     return ret;
  2611   00153C  5053               	movf	gpio_pin_direction_intialize@ret^0,w,c
  2612   00153E  0012               	return		;funcret
  2613   001540                     __end_of_gpio_pin_direction_intialize:
  2614                           	callstack 0
  2615                           
  2616 ;; *************** function _Data_EEPROM_WriteByte *****************
  2617 ;; Defined at:
  2618 ;;		line 22 in file "MCAL_Layer/EEPROM/hal_eeprom.c"
  2619 ;; Parameters:    Size  Location     Type
  2620 ;;  bAdd            2    1[COMRAM] unsigned short 
  2621 ;;  bData           1    3[COMRAM] unsigned char 
  2622 ;; Auto vars:     Size  Location     Type
  2623 ;;  Global_Inter    1    4[COMRAM] unsigned char 
  2624 ;;  ret             1    0        unsigned char 
  2625 ;; Return value:  Size  Location     Type
  2626 ;;                  1    wreg      unsigned char 
  2627 ;; Registers used:
  2628 ;;		wreg, status,2, status,0
  2629 ;; Tracked objects:
  2630 ;;		On entry : 0/0
  2631 ;;		On exit  : 0/0
  2632 ;;		Unchanged: 0/0
  2633 ;; Data sizes:     COMRAM   BANK0   BANK1   BANK2   BANK3   BANK4   BANK5   BANK6   BANK7   BANK8   BANK9  BANK10  BANK1
      +1  BANK12  BANK13  BANK14  BANK15
  2634 ;;      Params:         3       0       0       0       0       0       0       0       0       0       0       0       
      +0       0       0       0       0
  2635 ;;      Locals:         1       0       0       0       0       0       0       0       0       0       0       0       
      +0       0       0       0       0
  2636 ;;      Temps:          0       0       0       0       0       0       0       0       0       0       0       0       
      +0       0       0       0       0
  2637 ;;      Totals:         4       0       0       0       0       0       0       0       0       0       0       0       
      +0       0       0       0       0
  2638 ;;Total ram usage:        4 bytes
  2639 ;; Hardware stack levels used: 1
  2640 ;; Hardware stack levels required when called: 2
  2641 ;; This function calls:
  2642 ;;		Nothing
  2643 ;; This function is called by:
  2644 ;;		_main
  2645 ;; This function uses a non-reentrant model
  2646 ;;
  2647                           
  2648                           	psect	text16
  2649   001CEE                     __ptext16:
  2650                           	callstack 0
  2651   001CEE                     _Data_EEPROM_WriteByte:
  2652                           	callstack 28
  2653   001CEE                     
  2654                           ;MCAL_Layer/EEPROM/hal_eeprom.c: 25:     uint8 Global_Interrupt_Status = INTCONbits.GIE;
  2655   001CEE  0E00               	movlw	0
  2656   001CF0  BEF2               	btfsc	242,7,c	;volatile
  2657   001CF2  0E01               	movlw	1
  2658   001CF4  6E4E               	movwf	Data_EEPROM_WriteByte@Global_Interrupt_Status^0,c
  2659   001CF6                     
  2660                           ;MCAL_Layer/EEPROM/hal_eeprom.c: 26:     EEADRH = (uint8)((bAdd >> 8) & 0x03);
  2661   001CF6  504C               	movf	(Data_EEPROM_WriteByte@bAdd+1)^0,w,c
  2662   001CF8  0B03               	andlw	3
  2663   001CFA  6EAA               	movwf	170,c	;volatile
  2664   001CFC                     
  2665                           ;MCAL_Layer/EEPROM/hal_eeprom.c: 27:     EEADR = (uint8)(bAdd & 0xFF);
  2666   001CFC  C04B  FFA9         	movff	Data_EEPROM_WriteByte@bAdd,4009	;volatile
  2667   001D00                     
  2668                           ;MCAL_Layer/EEPROM/hal_eeprom.c: 28:     EEDATA = bData;
  2669   001D00  C04D  FFA8         	movff	Data_EEPROM_WriteByte@bData,4008	;volatile
  2670   001D04                     
  2671                           ;MCAL_Layer/EEPROM/hal_eeprom.c: 29:     EECON1bits.EEPGD = 0;
  2672   001D04  9EA6               	bcf	166,7,c	;volsfr
  2673   001D06                     
  2674                           ;MCAL_Layer/EEPROM/hal_eeprom.c: 30:     EECON1bits.CFGS = 0;
  2675   001D06  9CA6               	bcf	166,6,c	;volsfr
  2676   001D08                     
  2677                           ;MCAL_Layer/EEPROM/hal_eeprom.c: 31:     EECON1bits.WREN = 1;
  2678   001D08  84A6               	bsf	166,2,c	;volsfr
  2679   001D0A                     
  2680                           ;MCAL_Layer/EEPROM/hal_eeprom.c: 32:     (INTCONbits.GIE = 0);
  2681   001D0A  9EF2               	bcf	242,7,c	;volatile
  2682   001D0C                     
  2683                           ;MCAL_Layer/EEPROM/hal_eeprom.c: 33:     EECON2 = 0x55;
  2684   001D0C  0E55               	movlw	85
  2685   001D0E  6EA7               	movwf	167,c	;volsfr
  2686   001D10                     
  2687                           ;MCAL_Layer/EEPROM/hal_eeprom.c: 34:     EECON2 = 0xAA;
  2688   001D10  0EAA               	movlw	170
  2689   001D12  6EA7               	movwf	167,c	;volsfr
  2690   001D14                     
  2691                           ;MCAL_Layer/EEPROM/hal_eeprom.c: 35:     EECON1bits.WR = 1;
  2692   001D14  82A6               	bsf	166,1,c	;volsfr
  2693   001D16                     l617:
  2694   001D16  B2A6               	btfsc	166,1,c	;volsfr
  2695   001D18  EF90  F00E         	goto	u3411
  2696   001D1C  EF92  F00E         	goto	u3410
  2697   001D20                     u3411:
  2698   001D20  EF8B  F00E         	goto	l617
  2699   001D24                     u3410:
  2700   001D24                     
  2701                           ;MCAL_Layer/EEPROM/hal_eeprom.c: 37:     EECON1bits.WREN = 0;
  2702   001D24  94A6               	bcf	166,2,c	;volsfr
  2703                           
  2704                           ;MCAL_Layer/EEPROM/hal_eeprom.c: 38:     INTCONbits.GIE = Global_Interrupt_Status;
  2705   001D26  B04E               	btfsc	Data_EEPROM_WriteByte@Global_Interrupt_Status^0,0,c
  2706   001D28  D002               	bra	u3425
  2707   001D2A  9EF2               	bcf	242,7,c	;volatile
  2708   001D2C  D001               	bra	u3426
  2709   001D2E                     u3425:
  2710   001D2E  8EF2               	bsf	242,7,c	;volatile
  2711   001D30                     u3426:
  2712   001D30                     
  2713                           ;MCAL_Layer/EEPROM/hal_eeprom.c: 39:     return ret;
  2714   001D30  0E01               	movlw	1
  2715   001D32  0012               	return		;funcret
  2716   001D34                     __end_of_Data_EEPROM_WriteByte:
  2717                           	callstack 0
  2718                           
  2719 ;; *************** function _Data_EEPROM_ReadByte *****************
  2720 ;; Defined at:
  2721 ;;		line 50 in file "MCAL_Layer/EEPROM/hal_eeprom.c"
  2722 ;; Parameters:    Size  Location     Type
  2723 ;;  bAdd            2    1[COMRAM] unsigned short 
  2724 ;;  bData           2    3[COMRAM] PTR unsigned char 
  2725 ;;		 -> eeprom_read_val(1), 
  2726 ;; Auto vars:     Size  Location     Type
  2727 ;;  ret             1    5[COMRAM] unsigned char 
  2728 ;; Return value:  Size  Location     Type
  2729 ;;                  1    wreg      unsigned char 
  2730 ;; Registers used:
  2731 ;;		wreg, fsr2l, fsr2h, status,2, status,0
  2732 ;; Tracked objects:
  2733 ;;		On entry : 0/0
  2734 ;;		On exit  : 0/0
  2735 ;;		Unchanged: 0/0
  2736 ;; Data sizes:     COMRAM   BANK0   BANK1   BANK2   BANK3   BANK4   BANK5   BANK6   BANK7   BANK8   BANK9  BANK10  BANK1
      +1  BANK12  BANK13  BANK14  BANK15
  2737 ;;      Params:         4       0       0       0       0       0       0       0       0       0       0       0       
      +0       0       0       0       0
  2738 ;;      Locals:         1       0       0       0       0       0       0       0       0       0       0       0       
      +0       0       0       0       0
  2739 ;;      Temps:          0       0       0       0       0       0       0       0       0       0       0       0       
      +0       0       0       0       0
  2740 ;;      Totals:         5       0       0       0       0       0       0       0       0       0       0       0       
      +0       0       0       0       0
  2741 ;;Total ram usage:        5 bytes
  2742 ;; Hardware stack levels used: 1
  2743 ;; Hardware stack levels required when called: 2
  2744 ;; This function calls:
  2745 ;;		Nothing
  2746 ;; This function is called by:
  2747 ;;		_main
  2748 ;; This function uses a non-reentrant model
  2749 ;;
  2750                           
  2751                           	psect	text17
  2752   001D34                     __ptext17:
  2753                           	callstack 0
  2754   001D34                     _Data_EEPROM_ReadByte:
  2755                           	callstack 28
  2756   001D34                     
  2757                           ;MCAL_Layer/EEPROM/hal_eeprom.c: 53:     if(((void*)0) == bData)
  2758   001D34  504D               	movf	Data_EEPROM_ReadByte@bData^0,w,c
  2759   001D36  104E               	iorwf	(Data_EEPROM_ReadByte@bData+1)^0,w,c
  2760   001D38  A4D8               	btfss	status,2,c
  2761   001D3A  EFA1  F00E         	goto	u3431
  2762   001D3E  EFA3  F00E         	goto	u3430
  2763   001D42                     u3431:
  2764   001D42  EFA7  F00E         	goto	l5284
  2765   001D46                     u3430:
  2766   001D46                     
  2767                           ;MCAL_Layer/EEPROM/hal_eeprom.c: 54:     {;MCAL_Layer/EEPROM/hal_eeprom.c: 55:         r
      +                          et = (Std_ReturnType)0x00;
  2768   001D46  0E00               	movlw	0
  2769   001D48  6E4F               	movwf	Data_EEPROM_ReadByte@ret^0,c
  2770                           
  2771                           ;MCAL_Layer/EEPROM/hal_eeprom.c: 56:     }
  2772   001D4A  EFB9  F00E         	goto	l5302
  2773   001D4E                     l5284:
  2774                           
  2775                           ;MCAL_Layer/EEPROM/hal_eeprom.c: 58:     {;MCAL_Layer/EEPROM/hal_eeprom.c: 59:         E
      +                          EADRH = (uint8)((bAdd >> 8) & 0x03);
  2776   001D4E  504C               	movf	(Data_EEPROM_ReadByte@bAdd+1)^0,w,c
  2777   001D50  0B03               	andlw	3
  2778   001D52  6EAA               	movwf	170,c	;volatile
  2779   001D54                     
  2780                           ;MCAL_Layer/EEPROM/hal_eeprom.c: 60:         EEADR = (uint8)(bAdd & 0xFF);
  2781   001D54  C04B  FFA9         	movff	Data_EEPROM_ReadByte@bAdd,4009	;volatile
  2782   001D58                     
  2783                           ;MCAL_Layer/EEPROM/hal_eeprom.c: 61:         EECON1bits.EEPGD = 0;
  2784   001D58  9EA6               	bcf	166,7,c	;volsfr
  2785   001D5A                     
  2786                           ;MCAL_Layer/EEPROM/hal_eeprom.c: 62:         EECON1bits.CFGS = 0;
  2787   001D5A  9CA6               	bcf	166,6,c	;volsfr
  2788   001D5C                     
  2789                           ;MCAL_Layer/EEPROM/hal_eeprom.c: 63:         EECON1bits.RD = 1;
  2790   001D5C  80A6               	bsf	166,0,c	;volsfr
  2791   001D5E                     
  2792                           ;MCAL_Layer/EEPROM/hal_eeprom.c: 64:         __nop();
  2793   001D5E  F000               	nop	
  2794   001D60                     
  2795                           ;MCAL_Layer/EEPROM/hal_eeprom.c: 65:         __nop();
  2796   001D60  F000               	nop	
  2797   001D62                     
  2798                           ;MCAL_Layer/EEPROM/hal_eeprom.c: 66:         *bData = EEDATA;
  2799   001D62  C04D  FFD9         	movff	Data_EEPROM_ReadByte@bData,fsr2l
  2800   001D66  C04E  FFDA         	movff	Data_EEPROM_ReadByte@bData+1,fsr2h
  2801   001D6A  CFA8 FFDF          	movff	4008,indf2	;volatile
  2802   001D6E                     
  2803                           ;MCAL_Layer/EEPROM/hal_eeprom.c: 67:        ret = (Std_ReturnType)0x01;
  2804   001D6E  0E01               	movlw	1
  2805   001D70  6E4F               	movwf	Data_EEPROM_ReadByte@ret^0,c
  2806   001D72                     l5302:
  2807                           
  2808                           ;MCAL_Layer/EEPROM/hal_eeprom.c: 69:    return ret;
  2809   001D72  504F               	movf	Data_EEPROM_ReadByte@ret^0,w,c
  2810   001D74  0012               	return		;funcret
  2811   001D76                     __end_of_Data_EEPROM_ReadByte:
  2812                           	callstack 0
  2813                           
  2814 ;; *************** function _InterruptManager *****************
  2815 ;; Defined at:
  2816 ;;		line 46 in file "MCAL_Layer/Interrupt/mcal_interrupt_manager.c"
  2817 ;; Parameters:    Size  Location     Type
  2818 ;;		None
  2819 ;; Auto vars:     Size  Location     Type
  2820 ;;		None
  2821 ;; Return value:  Size  Location     Type
  2822 ;;                  1    wreg      void 
  2823 ;; Registers used:
  2824 ;;		wreg, status,2, status,0, cstack
  2825 ;; Tracked objects:
  2826 ;;		On entry : 0/0
  2827 ;;		On exit  : 0/0
  2828 ;;		Unchanged: 0/0
  2829 ;; Data sizes:     COMRAM   BANK0   BANK1   BANK2   BANK3   BANK4   BANK5   BANK6   BANK7   BANK8   BANK9  BANK10  BANK1
      +1  BANK12  BANK13  BANK14  BANK15
  2830 ;;      Params:         0       0       0       0       0       0       0       0       0       0       0       0       
      +0       0       0       0       0
  2831 ;;      Locals:         0       0       0       0       0       0       0       0       0       0       0       0       
      +0       0       0       0       0
  2832 ;;      Temps:          0       0       0       0       0       0       0       0       0       0       0       0       
      +0       0       0       0       0
  2833 ;;      Totals:         0       0       0       0       0       0       0       0       0       0       0       0       
      +0       0       0       0       0
  2834 ;;Total ram usage:        0 bytes
  2835 ;; Hardware stack levels used: 1
  2836 ;; Hardware stack levels required when called: 1
  2837 ;; This function calls:
  2838 ;;		_ADC_ISR
  2839 ;;		_CCP1_ISR
  2840 ;;		_CCP2_ISR
  2841 ;;		_INT0_ISR
  2842 ;;		_INT1_ISR
  2843 ;;		_INT2_ISR
  2844 ;;		_MSSP_I2C_BC_ISR
  2845 ;;		_MSSP_I2C_ISR
  2846 ;;		_RB4_ISR
  2847 ;;		_RB5_ISR
  2848 ;;		_RB6_ISR
  2849 ;;		_RB7_ISR
  2850 ;;		_TMR0_ISR
  2851 ;;		_TMR1_ISR
  2852 ;;		_TMR2_ISR
  2853 ;;		_TMR3_ISR
  2854 ;;		_USART_RX_ISR
  2855 ;;		_USART_TX_ISR
  2856 ;; This function is called by:
  2857 ;;		Interrupt level 2
  2858 ;; This function uses a non-reentrant model
  2859 ;;
  2860                           
  2861                           	psect	intcode
  2862   000008                     __pintcode:
  2863                           	callstack 0
  2864   000008                     _InterruptManager:
  2865                           	callstack 23
  2866                           
  2867                           ;incstack = 0
  2868   000008  827D               	bsf	int$flags,1,c	;set compiler interrupt flag (level 2)
  2869   00000A  ED0B  F008         	call	int_func,f	;refresh shadow registers
  2870                           
  2871                           	psect	intcode_body
  2872   001016                     __pintcode_body:
  2873                           	callstack 23
  2874   001016                     int_func:
  2875                           	callstack 23
  2876   001016  0006               	pop		; remove dummy address from shadow register refresh
  2877   001018                     
  2878                           ;MCAL_Layer/Interrupt/mcal_interrupt_manager.c: 49:     if((1 == INTCONbits.INT0IE) && (
      +                          1 == INTCONbits.INT0IF))
  2879   001018  A8F2               	btfss	242,4,c	;volatile
  2880   00101A  EF11  F008         	goto	i2u193_41
  2881   00101E  EF13  F008         	goto	i2u193_40
  2882   001022                     i2u193_41:
  2883   001022  EF1C  F008         	goto	i2l1160
  2884   001026                     i2u193_40:
  2885   001026  A2F2               	btfss	242,1,c	;volatile
  2886   001028  EF18  F008         	goto	i2u194_41
  2887   00102C  EF1A  F008         	goto	i2u194_40
  2888   001030                     i2u194_41:
  2889   001030  EF1C  F008         	goto	i2l1160
  2890   001034                     i2u194_40:
  2891   001034                     
  2892                           ;MCAL_Layer/Interrupt/mcal_interrupt_manager.c: 50:     {;MCAL_Layer/Interrupt/mcal_inte
      +                          rrupt_manager.c: 51:         INT0_ISR();
  2893   001034  EC72  F00F         	call	_INT0_ISR	;wreg free
  2894   001038                     i2l1160:
  2895                           
  2896                           ;MCAL_Layer/Interrupt/mcal_interrupt_manager.c: 54:     if((1 == INTCON3bits.INT1E) && (
      +                          1 == INTCON3bits.INT1F))
  2897   001038  A6F0               	btfss	240,3,c	;volatile
  2898   00103A  EF21  F008         	goto	i2u195_41
  2899   00103E  EF23  F008         	goto	i2u195_40
  2900   001042                     i2u195_41:
  2901   001042  EF2C  F008         	goto	i2l1162
  2902   001046                     i2u195_40:
  2903   001046  A0F0               	btfss	240,0,c	;volatile
  2904   001048  EF28  F008         	goto	i2u196_41
  2905   00104C  EF2A  F008         	goto	i2u196_40
  2906   001050                     i2u196_41:
  2907   001050  EF2C  F008         	goto	i2l1162
  2908   001054                     i2u196_40:
  2909   001054                     
  2910                           ;MCAL_Layer/Interrupt/mcal_interrupt_manager.c: 55:     {;MCAL_Layer/Interrupt/mcal_inte
      +                          rrupt_manager.c: 56:         INT1_ISR();
  2911   001054  EC70  F00F         	call	_INT1_ISR	;wreg free
  2912   001058                     i2l1162:
  2913                           
  2914                           ;MCAL_Layer/Interrupt/mcal_interrupt_manager.c: 59:     if((1 == INTCON3bits.INT2IE) && 
      +                          (1 == INTCON3bits.INT2IF))
  2915   001058  A8F0               	btfss	240,4,c	;volatile
  2916   00105A  EF31  F008         	goto	i2u197_41
  2917   00105E  EF33  F008         	goto	i2u197_40
  2918   001062                     i2u197_41:
  2919   001062  EF3C  F008         	goto	i2l1164
  2920   001066                     i2u197_40:
  2921   001066  A2F0               	btfss	240,1,c	;volatile
  2922   001068  EF38  F008         	goto	i2u198_41
  2923   00106C  EF3A  F008         	goto	i2u198_40
  2924   001070                     i2u198_41:
  2925   001070  EF3C  F008         	goto	i2l1164
  2926   001074                     i2u198_40:
  2927   001074                     
  2928                           ;MCAL_Layer/Interrupt/mcal_interrupt_manager.c: 60:     {;MCAL_Layer/Interrupt/mcal_inte
      +                          rrupt_manager.c: 61:         INT2_ISR();
  2929   001074  EC6E  F00F         	call	_INT2_ISR	;wreg free
  2930   001078                     i2l1164:
  2931                           
  2932                           ;MCAL_Layer/Interrupt/mcal_interrupt_manager.c: 67:     if((1 == INTCONbits.RBIE) && (1 
      +                          == INTCONbits.RBIF) &&
  2933   001078  A6F2               	btfss	242,3,c	;volatile
  2934   00107A  EF41  F008         	goto	i2u199_41
  2935   00107E  EF43  F008         	goto	i2u199_40
  2936   001082                     i2u199_41:
  2937   001082  EF5E  F008         	goto	i2l1166
  2938   001086                     i2u199_40:
  2939   001086  A0F2               	btfss	242,0,c	;volatile
  2940   001088  EF48  F008         	goto	i2u200_41
  2941   00108C  EF4A  F008         	goto	i2u200_40
  2942   001090                     i2u200_41:
  2943   001090  EF5E  F008         	goto	i2l1166
  2944   001094                     i2u200_40:
  2945   001094  A881               	btfss	129,4,c	;volatile
  2946   001096  EF4F  F008         	goto	i2u201_41
  2947   00109A  EF51  F008         	goto	i2u201_40
  2948   00109E                     i2u201_41:
  2949   00109E  EF5E  F008         	goto	i2l1166
  2950   0010A2                     i2u201_40:
  2951   0010A2  047B               	decf	_RB4_Flag^0,w,c	;volatile
  2952   0010A4  A4D8               	btfss	status,2,c
  2953   0010A6  EF57  F008         	goto	i2u202_41
  2954   0010AA  EF59  F008         	goto	i2u202_40
  2955   0010AE                     i2u202_41:
  2956   0010AE  EF5E  F008         	goto	i2l1166
  2957   0010B2                     i2u202_40:
  2958   0010B2                     
  2959                           ;MCAL_Layer/Interrupt/mcal_interrupt_manager.c: 69:     {;MCAL_Layer/Interrupt/mcal_inte
      +                          rrupt_manager.c: 70:         RB4_Flag = 0;
  2960   0010B2  0E00               	movlw	0
  2961   0010B4  6E7B               	movwf	_RB4_Flag^0,c	;volatile
  2962   0010B6                     
  2963                           ;MCAL_Layer/Interrupt/mcal_interrupt_manager.c: 71:         RB4_ISR(0);
  2964   0010B6  0E00               	movlw	0
  2965   0010B8  EC37  F00F         	call	_RB4_ISR
  2966   0010BC                     i2l1166:
  2967                           
  2968                           ;MCAL_Layer/Interrupt/mcal_interrupt_manager.c: 74:     if((1 == INTCONbits.RBIE) && (1 
      +                          == INTCONbits.RBIF) &&
  2969   0010BC  A6F2               	btfss	242,3,c	;volatile
  2970   0010BE  EF63  F008         	goto	i2u203_41
  2971   0010C2  EF65  F008         	goto	i2u203_40
  2972   0010C6                     i2u203_41:
  2973   0010C6  EF80  F008         	goto	i2l1168
  2974   0010CA                     i2u203_40:
  2975   0010CA  A0F2               	btfss	242,0,c	;volatile
  2976   0010CC  EF6A  F008         	goto	i2u204_41
  2977   0010D0  EF6C  F008         	goto	i2u204_40
  2978   0010D4                     i2u204_41:
  2979   0010D4  EF80  F008         	goto	i2l1168
  2980   0010D8                     i2u204_40:
  2981   0010D8  B881               	btfsc	129,4,c	;volatile
  2982   0010DA  EF71  F008         	goto	i2u205_41
  2983   0010DE  EF73  F008         	goto	i2u205_40
  2984   0010E2                     i2u205_41:
  2985   0010E2  EF80  F008         	goto	i2l1168
  2986   0010E6                     i2u205_40:
  2987   0010E6  507B               	movf	_RB4_Flag^0,w,c	;volatile
  2988   0010E8  A4D8               	btfss	status,2,c
  2989   0010EA  EF79  F008         	goto	i2u206_41
  2990   0010EE  EF7B  F008         	goto	i2u206_40
  2991   0010F2                     i2u206_41:
  2992   0010F2  EF80  F008         	goto	i2l1168
  2993   0010F6                     i2u206_40:
  2994   0010F6                     
  2995                           ;MCAL_Layer/Interrupt/mcal_interrupt_manager.c: 76:     {;MCAL_Layer/Interrupt/mcal_inte
      +                          rrupt_manager.c: 77:         RB4_Flag = 1;
  2996   0010F6  0E01               	movlw	1
  2997   0010F8  6E7B               	movwf	_RB4_Flag^0,c	;volatile
  2998   0010FA                     
  2999                           ;MCAL_Layer/Interrupt/mcal_interrupt_manager.c: 78:         RB4_ISR(1);
  3000   0010FA  0E01               	movlw	1
  3001   0010FC  EC37  F00F         	call	_RB4_ISR
  3002   001100                     i2l1168:
  3003                           
  3004                           ;MCAL_Layer/Interrupt/mcal_interrupt_manager.c: 81:     if((1 == INTCONbits.RBIE) && (1 
      +                          == INTCONbits.RBIF) &&
  3005   001100  A6F2               	btfss	242,3,c	;volatile
  3006   001102  EF85  F008         	goto	i2u207_41
  3007   001106  EF87  F008         	goto	i2u207_40
  3008   00110A                     i2u207_41:
  3009   00110A  EFA2  F008         	goto	i2l1170
  3010   00110E                     i2u207_40:
  3011   00110E  A0F2               	btfss	242,0,c	;volatile
  3012   001110  EF8C  F008         	goto	i2u208_41
  3013   001114  EF8E  F008         	goto	i2u208_40
  3014   001118                     i2u208_41:
  3015   001118  EFA2  F008         	goto	i2l1170
  3016   00111C                     i2u208_40:
  3017   00111C  AA81               	btfss	129,5,c	;volatile
  3018   00111E  EF93  F008         	goto	i2u209_41
  3019   001122  EF95  F008         	goto	i2u209_40
  3020   001126                     i2u209_41:
  3021   001126  EFA2  F008         	goto	i2l1170
  3022   00112A                     i2u209_40:
  3023   00112A  047A               	decf	_RB5_Flag^0,w,c	;volatile
  3024   00112C  A4D8               	btfss	status,2,c
  3025   00112E  EF9B  F008         	goto	i2u210_41
  3026   001132  EF9D  F008         	goto	i2u210_40
  3027   001136                     i2u210_41:
  3028   001136  EFA2  F008         	goto	i2l1170
  3029   00113A                     i2u210_40:
  3030   00113A                     
  3031                           ;MCAL_Layer/Interrupt/mcal_interrupt_manager.c: 83:     {;MCAL_Layer/Interrupt/mcal_inte
      +                          rrupt_manager.c: 84:         RB5_Flag = 0;
  3032   00113A  0E00               	movlw	0
  3033   00113C  6E7A               	movwf	_RB5_Flag^0,c	;volatile
  3034   00113E                     
  3035                           ;MCAL_Layer/Interrupt/mcal_interrupt_manager.c: 85:         RB5_ISR(0);
  3036   00113E  0E00               	movlw	0
  3037   001140  EC2A  F00F         	call	_RB5_ISR
  3038   001144                     i2l1170:
  3039                           
  3040                           ;MCAL_Layer/Interrupt/mcal_interrupt_manager.c: 88:     if((1 == INTCONbits.RBIE) && (1 
      +                          == INTCONbits.RBIF) &&
  3041   001144  A6F2               	btfss	242,3,c	;volatile
  3042   001146  EFA7  F008         	goto	i2u211_41
  3043   00114A  EFA9  F008         	goto	i2u211_40
  3044   00114E                     i2u211_41:
  3045   00114E  EFC4  F008         	goto	i2l1172
  3046   001152                     i2u211_40:
  3047   001152  A0F2               	btfss	242,0,c	;volatile
  3048   001154  EFAE  F008         	goto	i2u212_41
  3049   001158  EFB0  F008         	goto	i2u212_40
  3050   00115C                     i2u212_41:
  3051   00115C  EFC4  F008         	goto	i2l1172
  3052   001160                     i2u212_40:
  3053   001160  BA81               	btfsc	129,5,c	;volatile
  3054   001162  EFB5  F008         	goto	i2u213_41
  3055   001166  EFB7  F008         	goto	i2u213_40
  3056   00116A                     i2u213_41:
  3057   00116A  EFC4  F008         	goto	i2l1172
  3058   00116E                     i2u213_40:
  3059   00116E  507A               	movf	_RB5_Flag^0,w,c	;volatile
  3060   001170  A4D8               	btfss	status,2,c
  3061   001172  EFBD  F008         	goto	i2u214_41
  3062   001176  EFBF  F008         	goto	i2u214_40
  3063   00117A                     i2u214_41:
  3064   00117A  EFC4  F008         	goto	i2l1172
  3065   00117E                     i2u214_40:
  3066   00117E                     
  3067                           ;MCAL_Layer/Interrupt/mcal_interrupt_manager.c: 90:     {;MCAL_Layer/Interrupt/mcal_inte
      +                          rrupt_manager.c: 91:         RB5_Flag = 1;
  3068   00117E  0E01               	movlw	1
  3069   001180  6E7A               	movwf	_RB5_Flag^0,c	;volatile
  3070   001182                     
  3071                           ;MCAL_Layer/Interrupt/mcal_interrupt_manager.c: 92:         RB5_ISR(1);
  3072   001182  0E01               	movlw	1
  3073   001184  EC2A  F00F         	call	_RB5_ISR
  3074   001188                     i2l1172:
  3075                           
  3076                           ;MCAL_Layer/Interrupt/mcal_interrupt_manager.c: 95:     if((1 == INTCONbits.RBIE) && (1 
      +                          == INTCONbits.RBIF) &&
  3077   001188  A6F2               	btfss	242,3,c	;volatile
  3078   00118A  EFC9  F008         	goto	i2u215_41
  3079   00118E  EFCB  F008         	goto	i2u215_40
  3080   001192                     i2u215_41:
  3081   001192  EFE6  F008         	goto	i2l1174
  3082   001196                     i2u215_40:
  3083   001196  A0F2               	btfss	242,0,c	;volatile
  3084   001198  EFD0  F008         	goto	i2u216_41
  3085   00119C  EFD2  F008         	goto	i2u216_40
  3086   0011A0                     i2u216_41:
  3087   0011A0  EFE6  F008         	goto	i2l1174
  3088   0011A4                     i2u216_40:
  3089   0011A4  AC81               	btfss	129,6,c	;volatile
  3090   0011A6  EFD7  F008         	goto	i2u217_41
  3091   0011AA  EFD9  F008         	goto	i2u217_40
  3092   0011AE                     i2u217_41:
  3093   0011AE  EFE6  F008         	goto	i2l1174
  3094   0011B2                     i2u217_40:
  3095   0011B2  0479               	decf	_RB6_Flag^0,w,c	;volatile
  3096   0011B4  A4D8               	btfss	status,2,c
  3097   0011B6  EFDF  F008         	goto	i2u218_41
  3098   0011BA  EFE1  F008         	goto	i2u218_40
  3099   0011BE                     i2u218_41:
  3100   0011BE  EFE6  F008         	goto	i2l1174
  3101   0011C2                     i2u218_40:
  3102   0011C2                     
  3103                           ;MCAL_Layer/Interrupt/mcal_interrupt_manager.c: 97:     {;MCAL_Layer/Interrupt/mcal_inte
      +                          rrupt_manager.c: 98:         RB6_Flag = 0;
  3104   0011C2  0E00               	movlw	0
  3105   0011C4  6E79               	movwf	_RB6_Flag^0,c	;volatile
  3106   0011C6                     
  3107                           ;MCAL_Layer/Interrupt/mcal_interrupt_manager.c: 99:         RB6_ISR(0);
  3108   0011C6  0E00               	movlw	0
  3109   0011C8  EC1D  F00F         	call	_RB6_ISR
  3110   0011CC                     i2l1174:
  3111                           
  3112                           ;MCAL_Layer/Interrupt/mcal_interrupt_manager.c: 102:     if((1 == INTCONbits.RBIE) && (1
      +                           == INTCONbits.RBIF) &&
  3113   0011CC  A6F2               	btfss	242,3,c	;volatile
  3114   0011CE  EFEB  F008         	goto	i2u219_41
  3115   0011D2  EFED  F008         	goto	i2u219_40
  3116   0011D6                     i2u219_41:
  3117   0011D6  EF08  F009         	goto	i2l1176
  3118   0011DA                     i2u219_40:
  3119   0011DA  A0F2               	btfss	242,0,c	;volatile
  3120   0011DC  EFF2  F008         	goto	i2u220_41
  3121   0011E0  EFF4  F008         	goto	i2u220_40
  3122   0011E4                     i2u220_41:
  3123   0011E4  EF08  F009         	goto	i2l1176
  3124   0011E8                     i2u220_40:
  3125   0011E8  BC81               	btfsc	129,6,c	;volatile
  3126   0011EA  EFF9  F008         	goto	i2u221_41
  3127   0011EE  EFFB  F008         	goto	i2u221_40
  3128   0011F2                     i2u221_41:
  3129   0011F2  EF08  F009         	goto	i2l1176
  3130   0011F6                     i2u221_40:
  3131   0011F6  5079               	movf	_RB6_Flag^0,w,c	;volatile
  3132   0011F8  A4D8               	btfss	status,2,c
  3133   0011FA  EF01  F009         	goto	i2u222_41
  3134   0011FE  EF03  F009         	goto	i2u222_40
  3135   001202                     i2u222_41:
  3136   001202  EF08  F009         	goto	i2l1176
  3137   001206                     i2u222_40:
  3138   001206                     
  3139                           ;MCAL_Layer/Interrupt/mcal_interrupt_manager.c: 104:     {;MCAL_Layer/Interrupt/mcal_int
      +                          errupt_manager.c: 105:         RB6_Flag = 1;
  3140   001206  0E01               	movlw	1
  3141   001208  6E79               	movwf	_RB6_Flag^0,c	;volatile
  3142   00120A                     
  3143                           ;MCAL_Layer/Interrupt/mcal_interrupt_manager.c: 106:         RB6_ISR(1);
  3144   00120A  0E01               	movlw	1
  3145   00120C  EC1D  F00F         	call	_RB6_ISR
  3146   001210                     i2l1176:
  3147                           
  3148                           ;MCAL_Layer/Interrupt/mcal_interrupt_manager.c: 109:     if((1 == INTCONbits.RBIE) && (1
      +                           == INTCONbits.RBIF) &&
  3149   001210  A6F2               	btfss	242,3,c	;volatile
  3150   001212  EF0D  F009         	goto	i2u223_41
  3151   001216  EF0F  F009         	goto	i2u223_40
  3152   00121A                     i2u223_41:
  3153   00121A  EF2A  F009         	goto	i2l1178
  3154   00121E                     i2u223_40:
  3155   00121E  A0F2               	btfss	242,0,c	;volatile
  3156   001220  EF14  F009         	goto	i2u224_41
  3157   001224  EF16  F009         	goto	i2u224_40
  3158   001228                     i2u224_41:
  3159   001228  EF2A  F009         	goto	i2l1178
  3160   00122C                     i2u224_40:
  3161   00122C  AE81               	btfss	129,7,c	;volatile
  3162   00122E  EF1B  F009         	goto	i2u225_41
  3163   001232  EF1D  F009         	goto	i2u225_40
  3164   001236                     i2u225_41:
  3165   001236  EF2A  F009         	goto	i2l1178
  3166   00123A                     i2u225_40:
  3167   00123A  0478               	decf	_RB7_Flag^0,w,c	;volatile
  3168   00123C  A4D8               	btfss	status,2,c
  3169   00123E  EF23  F009         	goto	i2u226_41
  3170   001242  EF25  F009         	goto	i2u226_40
  3171   001246                     i2u226_41:
  3172   001246  EF2A  F009         	goto	i2l1178
  3173   00124A                     i2u226_40:
  3174   00124A                     
  3175                           ;MCAL_Layer/Interrupt/mcal_interrupt_manager.c: 111:     {;MCAL_Layer/Interrupt/mcal_int
      +                          errupt_manager.c: 112:         RB7_Flag = 0;
  3176   00124A  0E00               	movlw	0
  3177   00124C  6E78               	movwf	_RB7_Flag^0,c	;volatile
  3178   00124E                     
  3179                           ;MCAL_Layer/Interrupt/mcal_interrupt_manager.c: 113:         RB7_ISR(0);
  3180   00124E  0E00               	movlw	0
  3181   001250  EC10  F00F         	call	_RB7_ISR
  3182   001254                     i2l1178:
  3183                           
  3184                           ;MCAL_Layer/Interrupt/mcal_interrupt_manager.c: 116:     if((1 == INTCONbits.RBIE) && (1
      +                           == INTCONbits.RBIF) &&
  3185   001254  A6F2               	btfss	242,3,c	;volatile
  3186   001256  EF2F  F009         	goto	i2u227_41
  3187   00125A  EF31  F009         	goto	i2u227_40
  3188   00125E                     i2u227_41:
  3189   00125E  EF4C  F009         	goto	i2l1180
  3190   001262                     i2u227_40:
  3191   001262  A0F2               	btfss	242,0,c	;volatile
  3192   001264  EF36  F009         	goto	i2u228_41
  3193   001268  EF38  F009         	goto	i2u228_40
  3194   00126C                     i2u228_41:
  3195   00126C  EF4C  F009         	goto	i2l1180
  3196   001270                     i2u228_40:
  3197   001270  BE81               	btfsc	129,7,c	;volatile
  3198   001272  EF3D  F009         	goto	i2u229_41
  3199   001276  EF3F  F009         	goto	i2u229_40
  3200   00127A                     i2u229_41:
  3201   00127A  EF4C  F009         	goto	i2l1180
  3202   00127E                     i2u229_40:
  3203   00127E  5078               	movf	_RB7_Flag^0,w,c	;volatile
  3204   001280  A4D8               	btfss	status,2,c
  3205   001282  EF45  F009         	goto	i2u230_41
  3206   001286  EF47  F009         	goto	i2u230_40
  3207   00128A                     i2u230_41:
  3208   00128A  EF4C  F009         	goto	i2l1180
  3209   00128E                     i2u230_40:
  3210   00128E                     
  3211                           ;MCAL_Layer/Interrupt/mcal_interrupt_manager.c: 118:     {;MCAL_Layer/Interrupt/mcal_int
      +                          errupt_manager.c: 119:         RB7_Flag = 1;
  3212   00128E  0E01               	movlw	1
  3213   001290  6E78               	movwf	_RB7_Flag^0,c	;volatile
  3214   001292                     
  3215                           ;MCAL_Layer/Interrupt/mcal_interrupt_manager.c: 120:         RB7_ISR(1);
  3216   001292  0E01               	movlw	1
  3217   001294  EC10  F00F         	call	_RB7_ISR
  3218   001298                     i2l1180:
  3219                           
  3220                           ;MCAL_Layer/Interrupt/mcal_interrupt_manager.c: 126:     if((1 == PIE1bits.ADIE) && (1 =
      +                          = PIR1bits.ADIF))
  3221   001298  AC9D               	btfss	157,6,c	;volatile
  3222   00129A  EF51  F009         	goto	i2u231_41
  3223   00129E  EF53  F009         	goto	i2u231_40
  3224   0012A2                     i2u231_41:
  3225   0012A2  EF5C  F009         	goto	i2l1182
  3226   0012A6                     i2u231_40:
  3227   0012A6  AC9E               	btfss	158,6,c	;volatile
  3228   0012A8  EF58  F009         	goto	i2u232_41
  3229   0012AC  EF5A  F009         	goto	i2u232_40
  3230   0012B0                     i2u232_41:
  3231   0012B0  EF5C  F009         	goto	i2l1182
  3232   0012B4                     i2u232_40:
  3233   0012B4                     
  3234                           ;MCAL_Layer/Interrupt/mcal_interrupt_manager.c: 127:     {;MCAL_Layer/Interrupt/mcal_int
      +                          errupt_manager.c: 128:         ADC_ISR();
  3235   0012B4  EC78  F00F         	call	_ADC_ISR	;wreg free
  3236   0012B8                     i2l1182:
  3237                           
  3238                           ;MCAL_Layer/Interrupt/mcal_interrupt_manager.c: 134:     if((1 == INTCONbits.TMR0IE) && 
      +                          (1 == INTCONbits.TMR0IF))
  3239   0012B8  AAF2               	btfss	242,5,c	;volatile
  3240   0012BA  EF61  F009         	goto	i2u233_41
  3241   0012BE  EF63  F009         	goto	i2u233_40
  3242   0012C2                     i2u233_41:
  3243   0012C2  EF6C  F009         	goto	i2l1184
  3244   0012C6                     i2u233_40:
  3245   0012C6  A4F2               	btfss	242,2,c	;volatile
  3246   0012C8  EF68  F009         	goto	i2u234_41
  3247   0012CC  EF6A  F009         	goto	i2u234_40
  3248   0012D0                     i2u234_41:
  3249   0012D0  EF6C  F009         	goto	i2l1184
  3250   0012D4                     i2u234_40:
  3251   0012D4                     
  3252                           ;MCAL_Layer/Interrupt/mcal_interrupt_manager.c: 135:     {;MCAL_Layer/Interrupt/mcal_int
      +                          errupt_manager.c: 136:         TMR0_ISR();
  3253   0012D4  EC5B  F00F         	call	_TMR0_ISR	;wreg free
  3254   0012D8                     i2l1184:
  3255                           
  3256                           ;MCAL_Layer/Interrupt/mcal_interrupt_manager.c: 139:     if((1 == PIE1bits.TMR1IE) && (1
      +                           == PIR1bits.TMR1IF))
  3257   0012D8  A09D               	btfss	157,0,c	;volatile
  3258   0012DA  EF71  F009         	goto	i2u235_41
  3259   0012DE  EF73  F009         	goto	i2u235_40
  3260   0012E2                     i2u235_41:
  3261   0012E2  EF7C  F009         	goto	i2l1186
  3262   0012E6                     i2u235_40:
  3263   0012E6  A09E               	btfss	158,0,c	;volatile
  3264   0012E8  EF78  F009         	goto	i2u236_41
  3265   0012EC  EF7A  F009         	goto	i2u236_40
  3266   0012F0                     i2u236_41:
  3267   0012F0  EF7C  F009         	goto	i2l1186
  3268   0012F4                     i2u236_40:
  3269   0012F4                     
  3270                           ;MCAL_Layer/Interrupt/mcal_interrupt_manager.c: 140:     {;MCAL_Layer/Interrupt/mcal_int
      +                          errupt_manager.c: 141:         TMR1_ISR();
  3271   0012F4  EC55  F00F         	call	_TMR1_ISR	;wreg free
  3272   0012F8                     i2l1186:
  3273                           
  3274                           ;MCAL_Layer/Interrupt/mcal_interrupt_manager.c: 144:     if((1 == PIE1bits.TMR2IE) && (1
      +                           == PIR1bits.TMR2IF))
  3275   0012F8  A29D               	btfss	157,1,c	;volatile
  3276   0012FA  EF81  F009         	goto	i2u237_41
  3277   0012FE  EF83  F009         	goto	i2u237_40
  3278   001302                     i2u237_41:
  3279   001302  EF8C  F009         	goto	i2l1188
  3280   001306                     i2u237_40:
  3281   001306  A29E               	btfss	158,1,c	;volatile
  3282   001308  EF88  F009         	goto	i2u238_41
  3283   00130C  EF8A  F009         	goto	i2u238_40
  3284   001310                     i2u238_41:
  3285   001310  EF8C  F009         	goto	i2l1188
  3286   001314                     i2u238_40:
  3287   001314                     
  3288                           ;MCAL_Layer/Interrupt/mcal_interrupt_manager.c: 145:     {;MCAL_Layer/Interrupt/mcal_int
      +                          errupt_manager.c: 146:         TMR2_ISR();
  3289   001314  EC61  F00F         	call	_TMR2_ISR	;wreg free
  3290   001318                     i2l1188:
  3291                           
  3292                           ;MCAL_Layer/Interrupt/mcal_interrupt_manager.c: 149:     if((1 == PIE2bits.TMR3IE) && (1
      +                           == PIR2bits.TMR3IF))
  3293   001318  A2A0               	btfss	160,1,c	;volatile
  3294   00131A  EF91  F009         	goto	i2u239_41
  3295   00131E  EF93  F009         	goto	i2u239_40
  3296   001322                     i2u239_41:
  3297   001322  EF9C  F009         	goto	i2l1190
  3298   001326                     i2u239_40:
  3299   001326  A2A1               	btfss	161,1,c	;volatile
  3300   001328  EF98  F009         	goto	i2u240_41
  3301   00132C  EF9A  F009         	goto	i2u240_40
  3302   001330                     i2u240_41:
  3303   001330  EF9C  F009         	goto	i2l1190
  3304   001334                     i2u240_40:
  3305   001334                     
  3306                           ;MCAL_Layer/Interrupt/mcal_interrupt_manager.c: 150:     {;MCAL_Layer/Interrupt/mcal_int
      +                          errupt_manager.c: 151:         TMR3_ISR();
  3307   001334  EC4F  F00F         	call	_TMR3_ISR	;wreg free
  3308   001338                     i2l1190:
  3309                           
  3310                           ;MCAL_Layer/Interrupt/mcal_interrupt_manager.c: 157:     if((1 == PIE1bits.TXIE) && (1 =
      +                          = PIR1bits.TXIF))
  3311   001338  A89D               	btfss	157,4,c	;volatile
  3312   00133A  EFA1  F009         	goto	i2u241_41
  3313   00133E  EFA3  F009         	goto	i2u241_40
  3314   001342                     i2u241_41:
  3315   001342  EFAC  F009         	goto	i2l1192
  3316   001346                     i2u241_40:
  3317   001346  A89E               	btfss	158,4,c	;volatile
  3318   001348  EFA8  F009         	goto	i2u242_41
  3319   00134C  EFAA  F009         	goto	i2u242_40
  3320   001350                     i2u242_41:
  3321   001350  EFAC  F009         	goto	i2l1192
  3322   001354                     i2u242_40:
  3323   001354                     
  3324                           ;MCAL_Layer/Interrupt/mcal_interrupt_manager.c: 158:     {;MCAL_Layer/Interrupt/mcal_int
      +                          errupt_manager.c: 159:         USART_TX_ISR();
  3325   001354  EC68  F00F         	call	_USART_TX_ISR	;wreg free
  3326   001358                     i2l1192:
  3327                           
  3328                           ;MCAL_Layer/Interrupt/mcal_interrupt_manager.c: 162:     if((1 == PIE1bits.RCIE) && (1 =
      +                          = PIR1bits.RCIF))
  3329   001358  AA9D               	btfss	157,5,c	;volatile
  3330   00135A  EFB1  F009         	goto	i2u243_41
  3331   00135E  EFB3  F009         	goto	i2u243_40
  3332   001362                     i2u243_41:
  3333   001362  EFBC  F009         	goto	i2l1194
  3334   001366                     i2u243_40:
  3335   001366  AA9E               	btfss	158,5,c	;volatile
  3336   001368  EFB8  F009         	goto	i2u244_41
  3337   00136C  EFBA  F009         	goto	i2u244_40
  3338   001370                     i2u244_41:
  3339   001370  EFBC  F009         	goto	i2l1194
  3340   001374                     i2u244_40:
  3341   001374                     
  3342                           ;MCAL_Layer/Interrupt/mcal_interrupt_manager.c: 163:     {;MCAL_Layer/Interrupt/mcal_int
      +                          errupt_manager.c: 164:         USART_RX_ISR();
  3343   001374  EC7A  F00F         	call	_USART_RX_ISR	;wreg free
  3344   001378                     i2l1194:
  3345                           
  3346                           ;MCAL_Layer/Interrupt/mcal_interrupt_manager.c: 170:     if((1 == PIE1bits.SSPIE) && (1 
      +                          == PIR1bits.SSPIF))
  3347   001378  A69D               	btfss	157,3,c	;volatile
  3348   00137A  EFC1  F009         	goto	i2u245_41
  3349   00137E  EFC3  F009         	goto	i2u245_40
  3350   001382                     i2u245_41:
  3351   001382  EFCC  F009         	goto	i2l1196
  3352   001386                     i2u245_40:
  3353   001386  A69E               	btfss	158,3,c	;volatile
  3354   001388  EFC8  F009         	goto	i2u246_41
  3355   00138C  EFCA  F009         	goto	i2u246_40
  3356   001390                     i2u246_41:
  3357   001390  EFCC  F009         	goto	i2l1196
  3358   001394                     i2u246_40:
  3359   001394                     
  3360                           ;MCAL_Layer/Interrupt/mcal_interrupt_manager.c: 171:     {;MCAL_Layer/Interrupt/mcal_int
      +                          errupt_manager.c: 172:         MSSP_I2C_ISR();
  3361   001394  EC6A  F00F         	call	_MSSP_I2C_ISR	;wreg free
  3362   001398                     i2l1196:
  3363                           
  3364                           ;MCAL_Layer/Interrupt/mcal_interrupt_manager.c: 175:     if((1 == PIE2bits.BCLIE) && (1 
      +                          == PIR2bits.BCLIF))
  3365   001398  A6A0               	btfss	160,3,c	;volatile
  3366   00139A  EFD1  F009         	goto	i2u247_41
  3367   00139E  EFD3  F009         	goto	i2u247_40
  3368   0013A2                     i2u247_41:
  3369   0013A2  EFDC  F009         	goto	i2l1198
  3370   0013A6                     i2u247_40:
  3371   0013A6  A6A1               	btfss	161,3,c	;volatile
  3372   0013A8  EFD8  F009         	goto	i2u248_41
  3373   0013AC  EFDA  F009         	goto	i2u248_40
  3374   0013B0                     i2u248_41:
  3375   0013B0  EFDC  F009         	goto	i2l1198
  3376   0013B4                     i2u248_40:
  3377   0013B4                     
  3378                           ;MCAL_Layer/Interrupt/mcal_interrupt_manager.c: 176:     {;MCAL_Layer/Interrupt/mcal_int
      +                          errupt_manager.c: 177:         MSSP_I2C_BC_ISR();
  3379   0013B4  EC6C  F00F         	call	_MSSP_I2C_BC_ISR	;wreg free
  3380   0013B8                     i2l1198:
  3381                           
  3382                           ;MCAL_Layer/Interrupt/mcal_interrupt_manager.c: 183:     if((1 == PIE1bits.CCP1IE) && (1
      +                           == PIR1bits.CCP1IF))
  3383   0013B8  A49D               	btfss	157,2,c	;volatile
  3384   0013BA  EFE1  F009         	goto	i2u249_41
  3385   0013BE  EFE3  F009         	goto	i2u249_40
  3386   0013C2                     i2u249_41:
  3387   0013C2  EFEC  F009         	goto	i2l1200
  3388   0013C6                     i2u249_40:
  3389   0013C6  A49E               	btfss	158,2,c	;volatile
  3390   0013C8  EFE8  F009         	goto	i2u250_41
  3391   0013CC  EFEA  F009         	goto	i2u250_40
  3392   0013D0                     i2u250_41:
  3393   0013D0  EFEC  F009         	goto	i2l1200
  3394   0013D4                     i2u250_40:
  3395   0013D4                     
  3396                           ;MCAL_Layer/Interrupt/mcal_interrupt_manager.c: 184:     {;MCAL_Layer/Interrupt/mcal_int
      +                          errupt_manager.c: 185:         CCP1_ISR();
  3397   0013D4  EC76  F00F         	call	_CCP1_ISR	;wreg free
  3398   0013D8                     i2l1200:
  3399                           
  3400                           ;MCAL_Layer/Interrupt/mcal_interrupt_manager.c: 188:     if((1 == PIE2bits.CCP2IE) && (1
      +                           == PIR2bits.CCP2IF))
  3401   0013D8  A0A0               	btfss	160,0,c	;volatile
  3402   0013DA  EFF1  F009         	goto	i2u251_41
  3403   0013DE  EFF3  F009         	goto	i2u251_40
  3404   0013E2                     i2u251_41:
  3405   0013E2  EFFC  F009         	goto	i2l1203
  3406   0013E6                     i2u251_40:
  3407   0013E6  A0A1               	btfss	161,0,c	;volatile
  3408   0013E8  EFF8  F009         	goto	i2u252_41
  3409   0013EC  EFFA  F009         	goto	i2u252_40
  3410   0013F0                     i2u252_41:
  3411   0013F0  EFFC  F009         	goto	i2l1203
  3412   0013F4                     i2u252_40:
  3413   0013F4                     
  3414                           ;MCAL_Layer/Interrupt/mcal_interrupt_manager.c: 189:     {;MCAL_Layer/Interrupt/mcal_int
      +                          errupt_manager.c: 190:         CCP2_ISR();
  3415   0013F4  EC74  F00F         	call	_CCP2_ISR	;wreg free
  3416   0013F8                     i2l1203:
  3417   0013F8  927D               	bcf	int$flags,1,c	;clear compiler interrupt flag (level 2)
  3418   0013FA  0011               	retfie		f
  3419   0013FC                     __end_of_InterruptManager:
  3420                           	callstack 0
  3421                           
  3422 ;; *************** function _USART_TX_ISR *****************
  3423 ;; Defined at:
  3424 ;;		line 409 in file "MCAL_Layer/USART/hal_usart.c"
  3425 ;; Parameters:    Size  Location     Type
  3426 ;;		None
  3427 ;; Auto vars:     Size  Location     Type
  3428 ;;		None
  3429 ;; Return value:  Size  Location     Type
  3430 ;;                  1    wreg      void 
  3431 ;; Registers used:
  3432 ;;		None
  3433 ;; Tracked objects:
  3434 ;;		On entry : 0/0
  3435 ;;		On exit  : 0/0
  3436 ;;		Unchanged: 0/0
  3437 ;; Data sizes:     COMRAM   BANK0   BANK1   BANK2   BANK3   BANK4   BANK5   BANK6   BANK7   BANK8   BANK9  BANK10  BANK1
      +1  BANK12  BANK13  BANK14  BANK15
  3438 ;;      Params:         0       0       0       0       0       0       0       0       0       0       0       0       
      +0       0       0       0       0
  3439 ;;      Locals:         0       0       0       0       0       0       0       0       0       0       0       0       
      +0       0       0       0       0
  3440 ;;      Temps:          0       0       0       0       0       0       0       0       0       0       0       0       
      +0       0       0       0       0
  3441 ;;      Totals:         0       0       0       0       0       0       0       0       0       0       0       0       
      +0       0       0       0       0
  3442 ;;Total ram usage:        0 bytes
  3443 ;; Hardware stack levels used: 1
  3444 ;; This function calls:
  3445 ;;		Nothing
  3446 ;; This function is called by:
  3447 ;;		_InterruptManager
  3448 ;; This function uses a non-reentrant model
  3449 ;;
  3450                           
  3451                           	psect	text19
  3452   001ED0                     __ptext19:
  3453                           	callstack 0
  3454   001ED0                     _USART_TX_ISR:
  3455                           	callstack 23
  3456   001ED0                     
  3457                           ;MCAL_Layer/USART/hal_usart.c: 412:     (PIE1bits.TXIE = 0);
  3458   001ED0  989D               	bcf	157,4,c	;volatile
  3459   001ED2  0012               	return		;funcret
  3460   001ED4                     __end_of_USART_TX_ISR:
  3461                           	callstack 0
  3462                           
  3463 ;; *************** function _USART_RX_ISR *****************
  3464 ;; Defined at:
  3465 ;;		line 423 in file "MCAL_Layer/USART/hal_usart.c"
  3466 ;; Parameters:    Size  Location     Type
  3467 ;;		None
  3468 ;; Auto vars:     Size  Location     Type
  3469 ;;		None
  3470 ;; Return value:  Size  Location     Type
  3471 ;;                  1    wreg      void 
  3472 ;; Registers used:
  3473 ;;		wreg, status,2, status,0
  3474 ;; Tracked objects:
  3475 ;;		On entry : 0/0
  3476 ;;		On exit  : 0/0
  3477 ;;		Unchanged: 0/0
  3478 ;; Data sizes:     COMRAM   BANK0   BANK1   BANK2   BANK3   BANK4   BANK5   BANK6   BANK7   BANK8   BANK9  BANK10  BANK1
      +1  BANK12  BANK13  BANK14  BANK15
  3479 ;;      Params:         0       0       0       0       0       0       0       0       0       0       0       0       
      +0       0       0       0       0
  3480 ;;      Locals:         0       0       0       0       0       0       0       0       0       0       0       0       
      +0       0       0       0       0
  3481 ;;      Temps:          0       0       0       0       0       0       0       0       0       0       0       0       
      +0       0       0       0       0
  3482 ;;      Totals:         0       0       0       0       0       0       0       0       0       0       0       0       
      +0       0       0       0       0
  3483 ;;Total ram usage:        0 bytes
  3484 ;; Hardware stack levels used: 1
  3485 ;; This function calls:
  3486 ;;		Nothing
  3487 ;; This function is called by:
  3488 ;;		_InterruptManager
  3489 ;; This function uses a non-reentrant model
  3490 ;;
  3491                           
  3492                           	psect	text20
  3493   001EF4                     __ptext20:
  3494                           	callstack 0
  3495   001EF4                     _USART_RX_ISR:
  3496                           	callstack 23
  3497   001EF4  0012               	return		;funcret
  3498   001EF6                     __end_of_USART_RX_ISR:
  3499                           	callstack 0
  3500                           
  3501 ;; *************** function _TMR3_ISR *****************
  3502 ;; Defined at:
  3503 ;;		line 172 in file "MCAL_Layer/Timer3/hal_timer3.c"
  3504 ;; Parameters:    Size  Location     Type
  3505 ;;		None
  3506 ;; Auto vars:     Size  Location     Type
  3507 ;;		None
  3508 ;; Return value:  Size  Location     Type
  3509 ;;                  1    wreg      void 
  3510 ;; Registers used:
  3511 ;;		wreg, status,2
  3512 ;; Tracked objects:
  3513 ;;		On entry : 0/0
  3514 ;;		On exit  : 0/0
  3515 ;;		Unchanged: 0/0
  3516 ;; Data sizes:     COMRAM   BANK0   BANK1   BANK2   BANK3   BANK4   BANK5   BANK6   BANK7   BANK8   BANK9  BANK10  BANK1
      +1  BANK12  BANK13  BANK14  BANK15
  3517 ;;      Params:         0       0       0       0       0       0       0       0       0       0       0       0       
      +0       0       0       0       0
  3518 ;;      Locals:         0       0       0       0       0       0       0       0       0       0       0       0       
      +0       0       0       0       0
  3519 ;;      Temps:          0       0       0       0       0       0       0       0       0       0       0       0       
      +0       0       0       0       0
  3520 ;;      Totals:         0       0       0       0       0       0       0       0       0       0       0       0       
      +0       0       0       0       0
  3521 ;;Total ram usage:        0 bytes
  3522 ;; Hardware stack levels used: 1
  3523 ;; This function calls:
  3524 ;;		Nothing
  3525 ;; This function is called by:
  3526 ;;		_InterruptManager
  3527 ;; This function uses a non-reentrant model
  3528 ;;
  3529                           
  3530                           	psect	text21
  3531   001E9E                     __ptext21:
  3532                           	callstack 0
  3533   001E9E                     _TMR3_ISR:
  3534                           	callstack 23
  3535   001E9E                     
  3536                           ;MCAL_Layer/Timer3/hal_timer3.c: 174:     (PIR2bits.TMR3IF = 0);
  3537   001E9E  92A1               	bcf	161,1,c	;volatile
  3538   001EA0                     
  3539                           ;MCAL_Layer/Timer3/hal_timer3.c: 175:     TMR3H = (timer3_preload) >> 8;
  3540   001EA0  5010               	movf	(_timer3_preload+1)^0,w,c
  3541   001EA2  6EB3               	movwf	179,c	;volatile
  3542   001EA4                     
  3543                           ;MCAL_Layer/Timer3/hal_timer3.c: 176:     TMR3L = (uint8)(timer3_preload);
  3544   001EA4  C00F  FFB2         	movff	_timer3_preload,4018	;volatile
  3545   001EA8  0012               	return		;funcret
  3546   001EAA                     __end_of_TMR3_ISR:
  3547                           	callstack 0
  3548                           
  3549 ;; *************** function _TMR2_ISR *****************
  3550 ;; Defined at:
  3551 ;;		line 162 in file "MCAL_Layer/Timer2/hal_timer2.c"
  3552 ;; Parameters:    Size  Location     Type
  3553 ;;		None
  3554 ;; Auto vars:     Size  Location     Type
  3555 ;;		None
  3556 ;; Return value:  Size  Location     Type
  3557 ;;                  1    wreg      void 
  3558 ;; Registers used:
  3559 ;;		None
  3560 ;; Tracked objects:
  3561 ;;		On entry : 0/0
  3562 ;;		On exit  : 0/0
  3563 ;;		Unchanged: 0/0
  3564 ;; Data sizes:     COMRAM   BANK0   BANK1   BANK2   BANK3   BANK4   BANK5   BANK6   BANK7   BANK8   BANK9  BANK10  BANK1
      +1  BANK12  BANK13  BANK14  BANK15
  3565 ;;      Params:         0       0       0       0       0       0       0       0       0       0       0       0       
      +0       0       0       0       0
  3566 ;;      Locals:         0       0       0       0       0       0       0       0       0       0       0       0       
      +0       0       0       0       0
  3567 ;;      Temps:          0       0       0       0       0       0       0       0       0       0       0       0       
      +0       0       0       0       0
  3568 ;;      Totals:         0       0       0       0       0       0       0       0       0       0       0       0       
      +0       0       0       0       0
  3569 ;;Total ram usage:        0 bytes
  3570 ;; Hardware stack levels used: 1
  3571 ;; This function calls:
  3572 ;;		Nothing
  3573 ;; This function is called by:
  3574 ;;		_InterruptManager
  3575 ;; This function uses a non-reentrant model
  3576 ;;
  3577                           
  3578                           	psect	text22
  3579   001EC2                     __ptext22:
  3580                           	callstack 0
  3581   001EC2                     _TMR2_ISR:
  3582                           	callstack 23
  3583   001EC2                     
  3584                           ;MCAL_Layer/Timer2/hal_timer2.c: 164:     (PIR1bits.TMR2IF = 0);
  3585   001EC2  929E               	bcf	158,1,c	;volatile
  3586                           
  3587                           ;MCAL_Layer/Timer2/hal_timer2.c: 165:     TMR2 = timer2_preload;
  3588   001EC4  C041  FFCC         	movff	_timer2_preload,4044	;volatile
  3589   001EC8  0012               	return		;funcret
  3590   001ECA                     __end_of_TMR2_ISR:
  3591                           	callstack 0
  3592                           
  3593 ;; *************** function _TMR1_ISR *****************
  3594 ;; Defined at:
  3595 ;;		line 172 in file "MCAL_Layer/Timer1/hal_timer1.c"
  3596 ;; Parameters:    Size  Location     Type
  3597 ;;		None
  3598 ;; Auto vars:     Size  Location     Type
  3599 ;;		None
  3600 ;; Return value:  Size  Location     Type
  3601 ;;                  1    wreg      void 
  3602 ;; Registers used:
  3603 ;;		wreg, status,2
  3604 ;; Tracked objects:
  3605 ;;		On entry : 0/0
  3606 ;;		On exit  : 0/0
  3607 ;;		Unchanged: 0/0
  3608 ;; Data sizes:     COMRAM   BANK0   BANK1   BANK2   BANK3   BANK4   BANK5   BANK6   BANK7   BANK8   BANK9  BANK10  BANK1
      +1  BANK12  BANK13  BANK14  BANK15
  3609 ;;      Params:         0       0       0       0       0       0       0       0       0       0       0       0       
      +0       0       0       0       0
  3610 ;;      Locals:         0       0       0       0       0       0       0       0       0       0       0       0       
      +0       0       0       0       0
  3611 ;;      Temps:          0       0       0       0       0       0       0       0       0       0       0       0       
      +0       0       0       0       0
  3612 ;;      Totals:         0       0       0       0       0       0       0       0       0       0       0       0       
      +0       0       0       0       0
  3613 ;;Total ram usage:        0 bytes
  3614 ;; Hardware stack levels used: 1
  3615 ;; This function calls:
  3616 ;;		Nothing
  3617 ;; This function is called by:
  3618 ;;		_InterruptManager
  3619 ;; This function uses a non-reentrant model
  3620 ;;
  3621                           
  3622                           	psect	text23
  3623   001EAA                     __ptext23:
  3624                           	callstack 0
  3625   001EAA                     _TMR1_ISR:
  3626                           	callstack 23
  3627   001EAA                     
  3628                           ;MCAL_Layer/Timer1/hal_timer1.c: 174:     (PIR1bits.TMR1IF = 0);
  3629   001EAA  909E               	bcf	158,0,c	;volatile
  3630   001EAC                     
  3631                           ;MCAL_Layer/Timer1/hal_timer1.c: 175:     TMR1H = (timer1_preload) >> 8;
  3632   001EAC  5016               	movf	(_timer1_preload+1)^0,w,c
  3633   001EAE  6ECF               	movwf	207,c	;volatile
  3634   001EB0                     
  3635                           ;MCAL_Layer/Timer1/hal_timer1.c: 176:     TMR1L = (uint8)(timer1_preload);
  3636   001EB0  C015  FFCE         	movff	_timer1_preload,4046	;volatile
  3637   001EB4  0012               	return		;funcret
  3638   001EB6                     __end_of_TMR1_ISR:
  3639                           	callstack 0
  3640                           
  3641 ;; *************** function _TMR0_ISR *****************
  3642 ;; Defined at:
  3643 ;;		line 186 in file "MCAL_Layer/Timer0/hal_timer0.c"
  3644 ;; Parameters:    Size  Location     Type
  3645 ;;		None
  3646 ;; Auto vars:     Size  Location     Type
  3647 ;;		None
  3648 ;; Return value:  Size  Location     Type
  3649 ;;                  1    wreg      void 
  3650 ;; Registers used:
  3651 ;;		wreg, status,2
  3652 ;; Tracked objects:
  3653 ;;		On entry : 0/0
  3654 ;;		On exit  : 0/0
  3655 ;;		Unchanged: 0/0
  3656 ;; Data sizes:     COMRAM   BANK0   BANK1   BANK2   BANK3   BANK4   BANK5   BANK6   BANK7   BANK8   BANK9  BANK10  BANK1
      +1  BANK12  BANK13  BANK14  BANK15
  3657 ;;      Params:         0       0       0       0       0       0       0       0       0       0       0       0       
      +0       0       0       0       0
  3658 ;;      Locals:         0       0       0       0       0       0       0       0       0       0       0       0       
      +0       0       0       0       0
  3659 ;;      Temps:          0       0       0       0       0       0       0       0       0       0       0       0       
      +0       0       0       0       0
  3660 ;;      Totals:         0       0       0       0       0       0       0       0       0       0       0       0       
      +0       0       0       0       0
  3661 ;;Total ram usage:        0 bytes
  3662 ;; Hardware stack levels used: 1
  3663 ;; This function calls:
  3664 ;;		Nothing
  3665 ;; This function is called by:
  3666 ;;		_InterruptManager
  3667 ;; This function uses a non-reentrant model
  3668 ;;
  3669                           
  3670                           	psect	text24
  3671   001EB6                     __ptext24:
  3672                           	callstack 0
  3673   001EB6                     _TMR0_ISR:
  3674                           	callstack 23
  3675   001EB6                     
  3676                           ;MCAL_Layer/Timer0/hal_timer0.c: 188:     (INTCONbits.TMR0IF = 0);
  3677   001EB6  94F2               	bcf	242,2,c	;volatile
  3678   001EB8                     
  3679                           ;MCAL_Layer/Timer0/hal_timer0.c: 189:     TMR0H = (timer0_preload) >> 8;
  3680   001EB8  501A               	movf	(_timer0_preload+1)^0,w,c
  3681   001EBA  6ED7               	movwf	215,c	;volatile
  3682   001EBC                     
  3683                           ;MCAL_Layer/Timer0/hal_timer0.c: 190:     TMR0L = (uint8)(timer0_preload);
  3684   001EBC  C019  FFD6         	movff	_timer0_preload,4054	;volatile
  3685   001EC0  0012               	return		;funcret
  3686   001EC2                     __end_of_TMR0_ISR:
  3687                           	callstack 0
  3688                           
  3689 ;; *************** function _RB7_ISR *****************
  3690 ;; Defined at:
  3691 ;;		line 284 in file "MCAL_Layer/Interrupt/mcal_external_interrupt.c"
  3692 ;; Parameters:    Size  Location     Type
  3693 ;;  RB7_Source      1    wreg     unsigned char 
  3694 ;; Auto vars:     Size  Location     Type
  3695 ;;  RB7_Source      1    0[COMRAM] unsigned char 
  3696 ;; Return value:  Size  Location     Type
  3697 ;;                  1    wreg      void 
  3698 ;; Registers used:
  3699 ;;		wreg, status,2, status,0
  3700 ;; Tracked objects:
  3701 ;;		On entry : 0/0
  3702 ;;		On exit  : 0/0
  3703 ;;		Unchanged: 0/0
  3704 ;; Data sizes:     COMRAM   BANK0   BANK1   BANK2   BANK3   BANK4   BANK5   BANK6   BANK7   BANK8   BANK9  BANK10  BANK1
      +1  BANK12  BANK13  BANK14  BANK15
  3705 ;;      Params:         0       0       0       0       0       0       0       0       0       0       0       0       
      +0       0       0       0       0
  3706 ;;      Locals:         1       0       0       0       0       0       0       0       0       0       0       0       
      +0       0       0       0       0
  3707 ;;      Temps:          0       0       0       0       0       0       0       0       0       0       0       0       
      +0       0       0       0       0
  3708 ;;      Totals:         1       0       0       0       0       0       0       0       0       0       0       0       
      +0       0       0       0       0
  3709 ;;Total ram usage:        1 bytes
  3710 ;; Hardware stack levels used: 1
  3711 ;; This function calls:
  3712 ;;		Nothing
  3713 ;; This function is called by:
  3714 ;;		_InterruptManager
  3715 ;; This function uses a non-reentrant model
  3716 ;;
  3717                           
  3718                           	psect	text25
  3719   001E20                     __ptext25:
  3720                           	callstack 0
  3721   001E20                     _RB7_ISR:
  3722                           	callstack 23
  3723                           
  3724                           ;incstack = 0
  3725                           ;RB7_ISR@RB7_Source stored from wreg
  3726   001E20  6E4A               	movwf	RB7_ISR@RB7_Source^0,c
  3727   001E22                     
  3728                           ;MCAL_Layer/Interrupt/mcal_external_interrupt.c: 284: void RB7_ISR(uint8 RB7_Source);MCA
      +                          L_Layer/Interrupt/mcal_external_interrupt.c: 285: {;MCAL_Layer/Interrupt/mcal_external_i
      +                          nterrupt.c: 286:     (INTCONbits.RBIF = 0);
  3729   001E22  90F2               	bcf	242,0,c	;volatile
  3730   001E24                     
  3731                           ;MCAL_Layer/Interrupt/mcal_external_interrupt.c: 287:     if(0 == RB7_Source)
  3732   001E24  504A               	movf	RB7_ISR@RB7_Source^0,w,c
  3733   001E26  A4D8               	btfss	status,2,c
  3734   001E28  EF18  F00F         	goto	i2u51_41
  3735   001E2C  EF1A  F00F         	goto	i2u51_40
  3736   001E30                     i2u51_41:
  3737   001E30  EF1C  F00F         	goto	i2l2890
  3738   001E34                     i2u51_40:
  3739   001E34  EF1C  F00F         	goto	i2l987
  3740   001E38                     i2l2890:
  3741   001E38                     i2l987:
  3742   001E38  0012               	return		;funcret
  3743   001E3A                     __end_of_RB7_ISR:
  3744                           	callstack 0
  3745                           
  3746 ;; *************** function _RB6_ISR *****************
  3747 ;; Defined at:
  3748 ;;		line 264 in file "MCAL_Layer/Interrupt/mcal_external_interrupt.c"
  3749 ;; Parameters:    Size  Location     Type
  3750 ;;  RB6_Source      1    wreg     unsigned char 
  3751 ;; Auto vars:     Size  Location     Type
  3752 ;;  RB6_Source      1    0[COMRAM] unsigned char 
  3753 ;; Return value:  Size  Location     Type
  3754 ;;                  1    wreg      void 
  3755 ;; Registers used:
  3756 ;;		wreg, status,2, status,0
  3757 ;; Tracked objects:
  3758 ;;		On entry : 0/0
  3759 ;;		On exit  : 0/0
  3760 ;;		Unchanged: 0/0
  3761 ;; Data sizes:     COMRAM   BANK0   BANK1   BANK2   BANK3   BANK4   BANK5   BANK6   BANK7   BANK8   BANK9  BANK10  BANK1
      +1  BANK12  BANK13  BANK14  BANK15
  3762 ;;      Params:         0       0       0       0       0       0       0       0       0       0       0       0       
      +0       0       0       0       0
  3763 ;;      Locals:         1       0       0       0       0       0       0       0       0       0       0       0       
      +0       0       0       0       0
  3764 ;;      Temps:          0       0       0       0       0       0       0       0       0       0       0       0       
      +0       0       0       0       0
  3765 ;;      Totals:         1       0       0       0       0       0       0       0       0       0       0       0       
      +0       0       0       0       0
  3766 ;;Total ram usage:        1 bytes
  3767 ;; Hardware stack levels used: 1
  3768 ;; This function calls:
  3769 ;;		Nothing
  3770 ;; This function is called by:
  3771 ;;		_InterruptManager
  3772 ;; This function uses a non-reentrant model
  3773 ;;
  3774                           
  3775                           	psect	text26
  3776   001E3A                     __ptext26:
  3777                           	callstack 0
  3778   001E3A                     _RB6_ISR:
  3779                           	callstack 23
  3780                           
  3781                           ;incstack = 0
  3782                           ;RB6_ISR@RB6_Source stored from wreg
  3783   001E3A  6E4A               	movwf	RB6_ISR@RB6_Source^0,c
  3784   001E3C                     
  3785                           ;MCAL_Layer/Interrupt/mcal_external_interrupt.c: 264: void RB6_ISR(uint8 RB6_Source);MCA
      +                          L_Layer/Interrupt/mcal_external_interrupt.c: 265: {;MCAL_Layer/Interrupt/mcal_external_i
      +                          nterrupt.c: 266:     (INTCONbits.RBIF = 0);
  3786   001E3C  90F2               	bcf	242,0,c	;volatile
  3787   001E3E                     
  3788                           ;MCAL_Layer/Interrupt/mcal_external_interrupt.c: 267:     if(0 == RB6_Source)
  3789   001E3E  504A               	movf	RB6_ISR@RB6_Source^0,w,c
  3790   001E40  A4D8               	btfss	status,2,c
  3791   001E42  EF25  F00F         	goto	i2u50_41
  3792   001E46  EF27  F00F         	goto	i2u50_40
  3793   001E4A                     i2u50_41:
  3794   001E4A  EF29  F00F         	goto	i2l2876
  3795   001E4E                     i2u50_40:
  3796   001E4E  EF29  F00F         	goto	i2l976
  3797   001E52                     i2l2876:
  3798   001E52                     i2l976:
  3799   001E52  0012               	return		;funcret
  3800   001E54                     __end_of_RB6_ISR:
  3801                           	callstack 0
  3802                           
  3803 ;; *************** function _RB5_ISR *****************
  3804 ;; Defined at:
  3805 ;;		line 244 in file "MCAL_Layer/Interrupt/mcal_external_interrupt.c"
  3806 ;; Parameters:    Size  Location     Type
  3807 ;;  RB5_Source      1    wreg     unsigned char 
  3808 ;; Auto vars:     Size  Location     Type
  3809 ;;  RB5_Source      1    0[COMRAM] unsigned char 
  3810 ;; Return value:  Size  Location     Type
  3811 ;;                  1    wreg      void 
  3812 ;; Registers used:
  3813 ;;		wreg, status,2, status,0
  3814 ;; Tracked objects:
  3815 ;;		On entry : 0/0
  3816 ;;		On exit  : 0/0
  3817 ;;		Unchanged: 0/0
  3818 ;; Data sizes:     COMRAM   BANK0   BANK1   BANK2   BANK3   BANK4   BANK5   BANK6   BANK7   BANK8   BANK9  BANK10  BANK1
      +1  BANK12  BANK13  BANK14  BANK15
  3819 ;;      Params:         0       0       0       0       0       0       0       0       0       0       0       0       
      +0       0       0       0       0
  3820 ;;      Locals:         1       0       0       0       0       0       0       0       0       0       0       0       
      +0       0       0       0       0
  3821 ;;      Temps:          0       0       0       0       0       0       0       0       0       0       0       0       
      +0       0       0       0       0
  3822 ;;      Totals:         1       0       0       0       0       0       0       0       0       0       0       0       
      +0       0       0       0       0
  3823 ;;Total ram usage:        1 bytes
  3824 ;; Hardware stack levels used: 1
  3825 ;; This function calls:
  3826 ;;		Nothing
  3827 ;; This function is called by:
  3828 ;;		_InterruptManager
  3829 ;; This function uses a non-reentrant model
  3830 ;;
  3831                           
  3832                           	psect	text27
  3833   001E54                     __ptext27:
  3834                           	callstack 0
  3835   001E54                     _RB5_ISR:
  3836                           	callstack 23
  3837                           
  3838                           ;incstack = 0
  3839                           ;RB5_ISR@RB5_Source stored from wreg
  3840   001E54  6E4A               	movwf	RB5_ISR@RB5_Source^0,c
  3841   001E56                     
  3842                           ;MCAL_Layer/Interrupt/mcal_external_interrupt.c: 244: void RB5_ISR(uint8 RB5_Source);MCA
      +                          L_Layer/Interrupt/mcal_external_interrupt.c: 245: {;MCAL_Layer/Interrupt/mcal_external_i
      +                          nterrupt.c: 246:     (INTCONbits.RBIF = 0);
  3843   001E56  90F2               	bcf	242,0,c	;volatile
  3844   001E58                     
  3845                           ;MCAL_Layer/Interrupt/mcal_external_interrupt.c: 247:     if(0 == RB5_Source)
  3846   001E58  504A               	movf	RB5_ISR@RB5_Source^0,w,c
  3847   001E5A  A4D8               	btfss	status,2,c
  3848   001E5C  EF32  F00F         	goto	i2u49_41
  3849   001E60  EF34  F00F         	goto	i2u49_40
  3850   001E64                     i2u49_41:
  3851   001E64  EF36  F00F         	goto	i2l2862
  3852   001E68                     i2u49_40:
  3853   001E68  EF36  F00F         	goto	i2l965
  3854   001E6C                     i2l2862:
  3855   001E6C                     i2l965:
  3856   001E6C  0012               	return		;funcret
  3857   001E6E                     __end_of_RB5_ISR:
  3858                           	callstack 0
  3859                           
  3860 ;; *************** function _RB4_ISR *****************
  3861 ;; Defined at:
  3862 ;;		line 224 in file "MCAL_Layer/Interrupt/mcal_external_interrupt.c"
  3863 ;; Parameters:    Size  Location     Type
  3864 ;;  RB4_Source      1    wreg     unsigned char 
  3865 ;; Auto vars:     Size  Location     Type
  3866 ;;  RB4_Source      1    0[COMRAM] unsigned char 
  3867 ;; Return value:  Size  Location     Type
  3868 ;;                  1    wreg      void 
  3869 ;; Registers used:
  3870 ;;		wreg, status,2, status,0
  3871 ;; Tracked objects:
  3872 ;;		On entry : 0/0
  3873 ;;		On exit  : 0/0
  3874 ;;		Unchanged: 0/0
  3875 ;; Data sizes:     COMRAM   BANK0   BANK1   BANK2   BANK3   BANK4   BANK5   BANK6   BANK7   BANK8   BANK9  BANK10  BANK1
      +1  BANK12  BANK13  BANK14  BANK15
  3876 ;;      Params:         0       0       0       0       0       0       0       0       0       0       0       0       
      +0       0       0       0       0
  3877 ;;      Locals:         1       0       0       0       0       0       0       0       0       0       0       0       
      +0       0       0       0       0
  3878 ;;      Temps:          0       0       0       0       0       0       0       0       0       0       0       0       
      +0       0       0       0       0
  3879 ;;      Totals:         1       0       0       0       0       0       0       0       0       0       0       0       
      +0       0       0       0       0
  3880 ;;Total ram usage:        1 bytes
  3881 ;; Hardware stack levels used: 1
  3882 ;; This function calls:
  3883 ;;		Nothing
  3884 ;; This function is called by:
  3885 ;;		_InterruptManager
  3886 ;; This function uses a non-reentrant model
  3887 ;;
  3888                           
  3889                           	psect	text28
  3890   001E6E                     __ptext28:
  3891                           	callstack 0
  3892   001E6E                     _RB4_ISR:
  3893                           	callstack 23
  3894                           
  3895                           ;incstack = 0
  3896                           ;RB4_ISR@RB4_Source stored from wreg
  3897   001E6E  6E4A               	movwf	RB4_ISR@RB4_Source^0,c
  3898   001E70                     
  3899                           ;MCAL_Layer/Interrupt/mcal_external_interrupt.c: 224: void RB4_ISR(uint8 RB4_Source);MCA
      +                          L_Layer/Interrupt/mcal_external_interrupt.c: 225: {;MCAL_Layer/Interrupt/mcal_external_i
      +                          nterrupt.c: 226:     (INTCONbits.RBIF = 0);
  3900   001E70  90F2               	bcf	242,0,c	;volatile
  3901   001E72                     
  3902                           ;MCAL_Layer/Interrupt/mcal_external_interrupt.c: 227:     if(0 == RB4_Source)
  3903   001E72  504A               	movf	RB4_ISR@RB4_Source^0,w,c
  3904   001E74  A4D8               	btfss	status,2,c
  3905   001E76  EF3F  F00F         	goto	i2u48_41
  3906   001E7A  EF41  F00F         	goto	i2u48_40
  3907   001E7E                     i2u48_41:
  3908   001E7E  EF43  F00F         	goto	i2l2848
  3909   001E82                     i2u48_40:
  3910   001E82  EF43  F00F         	goto	i2l954
  3911   001E86                     i2l2848:
  3912   001E86                     i2l954:
  3913   001E86  0012               	return		;funcret
  3914   001E88                     __end_of_RB4_ISR:
  3915                           	callstack 0
  3916                           
  3917 ;; *************** function _MSSP_I2C_ISR *****************
  3918 ;; Defined at:
  3919 ;;		line 357 in file "MCAL_Layer/I2C/hal_i2c.c"
  3920 ;; Parameters:    Size  Location     Type
  3921 ;;		None
  3922 ;; Auto vars:     Size  Location     Type
  3923 ;;		None
  3924 ;; Return value:  Size  Location     Type
  3925 ;;                  1    wreg      void 
  3926 ;; Registers used:
  3927 ;;		None
  3928 ;; Tracked objects:
  3929 ;;		On entry : 0/0
  3930 ;;		On exit  : 0/0
  3931 ;;		Unchanged: 0/0
  3932 ;; Data sizes:     COMRAM   BANK0   BANK1   BANK2   BANK3   BANK4   BANK5   BANK6   BANK7   BANK8   BANK9  BANK10  BANK1
      +1  BANK12  BANK13  BANK14  BANK15
  3933 ;;      Params:         0       0       0       0       0       0       0       0       0       0       0       0       
      +0       0       0       0       0
  3934 ;;      Locals:         0       0       0       0       0       0       0       0       0       0       0       0       
      +0       0       0       0       0
  3935 ;;      Temps:          0       0       0       0       0       0       0       0       0       0       0       0       
      +0       0       0       0       0
  3936 ;;      Totals:         0       0       0       0       0       0       0       0       0       0       0       0       
      +0       0       0       0       0
  3937 ;;Total ram usage:        0 bytes
  3938 ;; Hardware stack levels used: 1
  3939 ;; This function calls:
  3940 ;;		Nothing
  3941 ;; This function is called by:
  3942 ;;		_InterruptManager
  3943 ;; This function uses a non-reentrant model
  3944 ;;
  3945                           
  3946                           	psect	text29
  3947   001ED4                     __ptext29:
  3948                           	callstack 0
  3949   001ED4                     _MSSP_I2C_ISR:
  3950                           	callstack 23
  3951   001ED4                     
  3952                           ;MCAL_Layer/I2C/hal_i2c.c: 360:     (PIR1bits.SSPIF = 0);
  3953   001ED4  969E               	bcf	158,3,c	;volatile
  3954   001ED6  0012               	return		;funcret
  3955   001ED8                     __end_of_MSSP_I2C_ISR:
  3956                           	callstack 0
  3957                           
  3958 ;; *************** function _MSSP_I2C_BC_ISR *****************
  3959 ;; Defined at:
  3960 ;;		line 372 in file "MCAL_Layer/I2C/hal_i2c.c"
  3961 ;; Parameters:    Size  Location     Type
  3962 ;;		None
  3963 ;; Auto vars:     Size  Location     Type
  3964 ;;		None
  3965 ;; Return value:  Size  Location     Type
  3966 ;;                  1    wreg      void 
  3967 ;; Registers used:
  3968 ;;		None
  3969 ;; Tracked objects:
  3970 ;;		On entry : 0/0
  3971 ;;		On exit  : 0/0
  3972 ;;		Unchanged: 0/0
  3973 ;; Data sizes:     COMRAM   BANK0   BANK1   BANK2   BANK3   BANK4   BANK5   BANK6   BANK7   BANK8   BANK9  BANK10  BANK1
      +1  BANK12  BANK13  BANK14  BANK15
  3974 ;;      Params:         0       0       0       0       0       0       0       0       0       0       0       0       
      +0       0       0       0       0
  3975 ;;      Locals:         0       0       0       0       0       0       0       0       0       0       0       0       
      +0       0       0       0       0
  3976 ;;      Temps:          0       0       0       0       0       0       0       0       0       0       0       0       
      +0       0       0       0       0
  3977 ;;      Totals:         0       0       0       0       0       0       0       0       0       0       0       0       
      +0       0       0       0       0
  3978 ;;Total ram usage:        0 bytes
  3979 ;; Hardware stack levels used: 1
  3980 ;; This function calls:
  3981 ;;		Nothing
  3982 ;; This function is called by:
  3983 ;;		_InterruptManager
  3984 ;; This function uses a non-reentrant model
  3985 ;;
  3986                           
  3987                           	psect	text30
  3988   001ED8                     __ptext30:
  3989                           	callstack 0
  3990   001ED8                     _MSSP_I2C_BC_ISR:
  3991                           	callstack 23
  3992   001ED8                     
  3993                           ;MCAL_Layer/I2C/hal_i2c.c: 375:     (PIR2bits.BCLIF = 0);
  3994   001ED8  96A1               	bcf	161,3,c	;volatile
  3995   001EDA  0012               	return		;funcret
  3996   001EDC                     __end_of_MSSP_I2C_BC_ISR:
  3997                           	callstack 0
  3998                           
  3999 ;; *************** function _INT2_ISR *****************
  4000 ;; Defined at:
  4001 ;;		line 213 in file "MCAL_Layer/Interrupt/mcal_external_interrupt.c"
  4002 ;; Parameters:    Size  Location     Type
  4003 ;;		None
  4004 ;; Auto vars:     Size  Location     Type
  4005 ;;		None
  4006 ;; Return value:  Size  Location     Type
  4007 ;;                  1    wreg      void 
  4008 ;; Registers used:
  4009 ;;		None
  4010 ;; Tracked objects:
  4011 ;;		On entry : 0/0
  4012 ;;		On exit  : 0/0
  4013 ;;		Unchanged: 0/0
  4014 ;; Data sizes:     COMRAM   BANK0   BANK1   BANK2   BANK3   BANK4   BANK5   BANK6   BANK7   BANK8   BANK9  BANK10  BANK1
      +1  BANK12  BANK13  BANK14  BANK15
  4015 ;;      Params:         0       0       0       0       0       0       0       0       0       0       0       0       
      +0       0       0       0       0
  4016 ;;      Locals:         0       0       0       0       0       0       0       0       0       0       0       0       
      +0       0       0       0       0
  4017 ;;      Temps:          0       0       0       0       0       0       0       0       0       0       0       0       
      +0       0       0       0       0
  4018 ;;      Totals:         0       0       0       0       0       0       0       0       0       0       0       0       
      +0       0       0       0       0
  4019 ;;Total ram usage:        0 bytes
  4020 ;; Hardware stack levels used: 1
  4021 ;; This function calls:
  4022 ;;		Nothing
  4023 ;; This function is called by:
  4024 ;;		_InterruptManager
  4025 ;; This function uses a non-reentrant model
  4026 ;;
  4027                           
  4028                           	psect	text31
  4029   001EDC                     __ptext31:
  4030                           	callstack 0
  4031   001EDC                     _INT2_ISR:
  4032                           	callstack 23
  4033   001EDC                     
  4034                           ;MCAL_Layer/Interrupt/mcal_external_interrupt.c: 215:     (INTCON3bits.INT2IF = 0);
  4035   001EDC  92F0               	bcf	240,1,c	;volatile
  4036   001EDE  0012               	return		;funcret
  4037   001EE0                     __end_of_INT2_ISR:
  4038                           	callstack 0
  4039                           
  4040 ;; *************** function _INT1_ISR *****************
  4041 ;; Defined at:
  4042 ;;		line 203 in file "MCAL_Layer/Interrupt/mcal_external_interrupt.c"
  4043 ;; Parameters:    Size  Location     Type
  4044 ;;		None
  4045 ;; Auto vars:     Size  Location     Type
  4046 ;;		None
  4047 ;; Return value:  Size  Location     Type
  4048 ;;                  1    wreg      void 
  4049 ;; Registers used:
  4050 ;;		None
  4051 ;; Tracked objects:
  4052 ;;		On entry : 0/0
  4053 ;;		On exit  : 0/0
  4054 ;;		Unchanged: 0/0
  4055 ;; Data sizes:     COMRAM   BANK0   BANK1   BANK2   BANK3   BANK4   BANK5   BANK6   BANK7   BANK8   BANK9  BANK10  BANK1
      +1  BANK12  BANK13  BANK14  BANK15
  4056 ;;      Params:         0       0       0       0       0       0       0       0       0       0       0       0       
      +0       0       0       0       0
  4057 ;;      Locals:         0       0       0       0       0       0       0       0       0       0       0       0       
      +0       0       0       0       0
  4058 ;;      Temps:          0       0       0       0       0       0       0       0       0       0       0       0       
      +0       0       0       0       0
  4059 ;;      Totals:         0       0       0       0       0       0       0       0       0       0       0       0       
      +0       0       0       0       0
  4060 ;;Total ram usage:        0 bytes
  4061 ;; Hardware stack levels used: 1
  4062 ;; This function calls:
  4063 ;;		Nothing
  4064 ;; This function is called by:
  4065 ;;		_InterruptManager
  4066 ;; This function uses a non-reentrant model
  4067 ;;
  4068                           
  4069                           	psect	text32
  4070   001EE0                     __ptext32:
  4071                           	callstack 0
  4072   001EE0                     _INT1_ISR:
  4073                           	callstack 23
  4074   001EE0                     
  4075                           ;MCAL_Layer/Interrupt/mcal_external_interrupt.c: 205:     (INTCON3bits.INT1IF = 0);
  4076   001EE0  90F0               	bcf	240,0,c	;volatile
  4077   001EE2  0012               	return		;funcret
  4078   001EE4                     __end_of_INT1_ISR:
  4079                           	callstack 0
  4080                           
  4081 ;; *************** function _INT0_ISR *****************
  4082 ;; Defined at:
  4083 ;;		line 193 in file "MCAL_Layer/Interrupt/mcal_external_interrupt.c"
  4084 ;; Parameters:    Size  Location     Type
  4085 ;;		None
  4086 ;; Auto vars:     Size  Location     Type
  4087 ;;		None
  4088 ;; Return value:  Size  Location     Type
  4089 ;;                  1    wreg      void 
  4090 ;; Registers used:
  4091 ;;		None
  4092 ;; Tracked objects:
  4093 ;;		On entry : 0/0
  4094 ;;		On exit  : 0/0
  4095 ;;		Unchanged: 0/0
  4096 ;; Data sizes:     COMRAM   BANK0   BANK1   BANK2   BANK3   BANK4   BANK5   BANK6   BANK7   BANK8   BANK9  BANK10  BANK1
      +1  BANK12  BANK13  BANK14  BANK15
  4097 ;;      Params:         0       0       0       0       0       0       0       0       0       0       0       0       
      +0       0       0       0       0
  4098 ;;      Locals:         0       0       0       0       0       0       0       0       0       0       0       0       
      +0       0       0       0       0
  4099 ;;      Temps:          0       0       0       0       0       0       0       0       0       0       0       0       
      +0       0       0       0       0
  4100 ;;      Totals:         0       0       0       0       0       0       0       0       0       0       0       0       
      +0       0       0       0       0
  4101 ;;Total ram usage:        0 bytes
  4102 ;; Hardware stack levels used: 1
  4103 ;; This function calls:
  4104 ;;		Nothing
  4105 ;; This function is called by:
  4106 ;;		_InterruptManager
  4107 ;; This function uses a non-reentrant model
  4108 ;;
  4109                           
  4110                           	psect	text33
  4111   001EE4                     __ptext33:
  4112                           	callstack 0
  4113   001EE4                     _INT0_ISR:
  4114                           	callstack 23
  4115   001EE4                     
  4116                           ;MCAL_Layer/Interrupt/mcal_external_interrupt.c: 195:     (INTCONbits.INT0IF = 0);
  4117   001EE4  92F2               	bcf	242,1,c	;volatile
  4118   001EE6  0012               	return		;funcret
  4119   001EE8                     __end_of_INT0_ISR:
  4120                           	callstack 0
  4121                           
  4122 ;; *************** function _CCP2_ISR *****************
  4123 ;; Defined at:
  4124 ;;		line 401 in file "MCAL_Layer/CCP/hal_ccp.c"
  4125 ;; Parameters:    Size  Location     Type
  4126 ;;		None
  4127 ;; Auto vars:     Size  Location     Type
  4128 ;;		None
  4129 ;; Return value:  Size  Location     Type
  4130 ;;                  1    wreg      void 
  4131 ;; Registers used:
  4132 ;;		None
  4133 ;; Tracked objects:
  4134 ;;		On entry : 0/0
  4135 ;;		On exit  : 0/0
  4136 ;;		Unchanged: 0/0
  4137 ;; Data sizes:     COMRAM   BANK0   BANK1   BANK2   BANK3   BANK4   BANK5   BANK6   BANK7   BANK8   BANK9  BANK10  BANK1
      +1  BANK12  BANK13  BANK14  BANK15
  4138 ;;      Params:         0       0       0       0       0       0       0       0       0       0       0       0       
      +0       0       0       0       0
  4139 ;;      Locals:         0       0       0       0       0       0       0       0       0       0       0       0       
      +0       0       0       0       0
  4140 ;;      Temps:          0       0       0       0       0       0       0       0       0       0       0       0       
      +0       0       0       0       0
  4141 ;;      Totals:         0       0       0       0       0       0       0       0       0       0       0       0       
      +0       0       0       0       0
  4142 ;;Total ram usage:        0 bytes
  4143 ;; Hardware stack levels used: 1
  4144 ;; This function calls:
  4145 ;;		Nothing
  4146 ;; This function is called by:
  4147 ;;		_InterruptManager
  4148 ;; This function uses a non-reentrant model
  4149 ;;
  4150                           
  4151                           	psect	text34
  4152   001EE8                     __ptext34:
  4153                           	callstack 0
  4154   001EE8                     _CCP2_ISR:
  4155                           	callstack 23
  4156   001EE8                     
  4157                           ;MCAL_Layer/CCP/hal_ccp.c: 403:     (PIR2bits.CCP2IF = 0);
  4158   001EE8  90A1               	bcf	161,0,c	;volatile
  4159   001EEA  0012               	return		;funcret
  4160   001EEC                     __end_of_CCP2_ISR:
  4161                           	callstack 0
  4162                           
  4163 ;; *************** function _CCP1_ISR *****************
  4164 ;; Defined at:
  4165 ;;		line 388 in file "MCAL_Layer/CCP/hal_ccp.c"
  4166 ;; Parameters:    Size  Location     Type
  4167 ;;		None
  4168 ;; Auto vars:     Size  Location     Type
  4169 ;;		None
  4170 ;; Return value:  Size  Location     Type
  4171 ;;                  1    wreg      void 
  4172 ;; Registers used:
  4173 ;;		None
  4174 ;; Tracked objects:
  4175 ;;		On entry : 0/0
  4176 ;;		On exit  : 0/0
  4177 ;;		Unchanged: 0/0
  4178 ;; Data sizes:     COMRAM   BANK0   BANK1   BANK2   BANK3   BANK4   BANK5   BANK6   BANK7   BANK8   BANK9  BANK10  BANK1
      +1  BANK12  BANK13  BANK14  BANK15
  4179 ;;      Params:         0       0       0       0       0       0       0       0       0       0       0       0       
      +0       0       0       0       0
  4180 ;;      Locals:         0       0       0       0       0       0       0       0       0       0       0       0       
      +0       0       0       0       0
  4181 ;;      Temps:          0       0       0       0       0       0       0       0       0       0       0       0       
      +0       0       0       0       0
  4182 ;;      Totals:         0       0       0       0       0       0       0       0       0       0       0       0       
      +0       0       0       0       0
  4183 ;;Total ram usage:        0 bytes
  4184 ;; Hardware stack levels used: 1
  4185 ;; This function calls:
  4186 ;;		Nothing
  4187 ;; This function is called by:
  4188 ;;		_InterruptManager
  4189 ;; This function uses a non-reentrant model
  4190 ;;
  4191                           
  4192                           	psect	text35
  4193   001EEC                     __ptext35:
  4194                           	callstack 0
  4195   001EEC                     _CCP1_ISR:
  4196                           	callstack 23
  4197   001EEC                     
  4198                           ;MCAL_Layer/CCP/hal_ccp.c: 390:     (PIR1bits.CCP1IF = 0);
  4199   001EEC  949E               	bcf	158,2,c	;volatile
  4200   001EEE  0012               	return		;funcret
  4201   001EF0                     __end_of_CCP1_ISR:
  4202                           	callstack 0
  4203                           
  4204 ;; *************** function _ADC_ISR *****************
  4205 ;; Defined at:
  4206 ;;		line 341 in file "MCAL_Layer/ADC/hal_adc.c"
  4207 ;; Parameters:    Size  Location     Type
  4208 ;;		None
  4209 ;; Auto vars:     Size  Location     Type
  4210 ;;		None
  4211 ;; Return value:  Size  Location     Type
  4212 ;;                  1    wreg      void 
  4213 ;; Registers used:
  4214 ;;		None
  4215 ;; Tracked objects:
  4216 ;;		On entry : 0/0
  4217 ;;		On exit  : 0/0
  4218 ;;		Unchanged: 0/0
  4219 ;; Data sizes:     COMRAM   BANK0   BANK1   BANK2   BANK3   BANK4   BANK5   BANK6   BANK7   BANK8   BANK9  BANK10  BANK1
      +1  BANK12  BANK13  BANK14  BANK15
  4220 ;;      Params:         0       0       0       0       0       0       0       0       0       0       0       0       
      +0       0       0       0       0
  4221 ;;      Locals:         0       0       0       0       0       0       0       0       0       0       0       0       
      +0       0       0       0       0
  4222 ;;      Temps:          0       0       0       0       0       0       0       0       0       0       0       0       
      +0       0       0       0       0
  4223 ;;      Totals:         0       0       0       0       0       0       0       0       0       0       0       0       
      +0       0       0       0       0
  4224 ;;Total ram usage:        0 bytes
  4225 ;; Hardware stack levels used: 1
  4226 ;; This function calls:
  4227 ;;		Nothing
  4228 ;; This function is called by:
  4229 ;;		_InterruptManager
  4230 ;; This function uses a non-reentrant model
  4231 ;;
  4232                           
  4233                           	psect	text36
  4234   001EF0                     __ptext36:
  4235                           	callstack 0
  4236   001EF0                     _ADC_ISR:
  4237                           	callstack 23
  4238   001EF0                     
  4239                           ;MCAL_Layer/ADC/hal_adc.c: 343:     (PIR1bits.ADIF = 0);
  4240   001EF0  9C9E               	bcf	158,6,c	;volatile
  4241   001EF2  0012               	return		;funcret
  4242   001EF4                     __end_of_ADC_ISR:
  4243                           	callstack 0
  4244                           
  4245                           	psect	rparam
  4246   000000                     
  4247                           	psect	temp
  4248   00007D                     btemp:
  4249                           	callstack 0
  4250   00007D                     	ds	1
  4251   000000                     int$flags	set	btemp
  4252   000000                     wtemp8	set	btemp+1
  4253   000000                     ttemp5	set	btemp+1
  4254   000000                     ttemp6	set	btemp+4
  4255   000000                     ttemp7	set	btemp+8
  4256                           
  4257                           	psect	idloc
  4258                           
  4259                           ;Config register IDLOC0 @ 0x200000
  4260                           ;	unspecified, using default values
  4261   200000                     	org	2097152
  4262   200000  FF                 	db	255
  4263                           
  4264                           ;Config register IDLOC1 @ 0x200001
  4265                           ;	unspecified, using default values
  4266   200001                     	org	2097153
  4267   200001  FF                 	db	255
  4268                           
  4269                           ;Config register IDLOC2 @ 0x200002
  4270                           ;	unspecified, using default values
  4271   200002                     	org	2097154
  4272   200002  FF                 	db	255
  4273                           
  4274                           ;Config register IDLOC3 @ 0x200003
  4275                           ;	unspecified, using default values
  4276   200003                     	org	2097155
  4277   200003  FF                 	db	255
  4278                           
  4279                           ;Config register IDLOC4 @ 0x200004
  4280                           ;	unspecified, using default values
  4281   200004                     	org	2097156
  4282   200004  FF                 	db	255
  4283                           
  4284                           ;Config register IDLOC5 @ 0x200005
  4285                           ;	unspecified, using default values
  4286   200005                     	org	2097157
  4287   200005  FF                 	db	255
  4288                           
  4289                           ;Config register IDLOC6 @ 0x200006
  4290                           ;	unspecified, using default values
  4291   200006                     	org	2097158
  4292   200006  FF                 	db	255
  4293                           
  4294                           ;Config register IDLOC7 @ 0x200007
  4295                           ;	unspecified, using default values
  4296   200007                     	org	2097159
  4297   200007  FF                 	db	255
  4298                           
  4299                           	psect	config
  4300                           
  4301                           ; Padding undefined space
  4302   300000                     	org	3145728
  4303   300000  FF                 	db	255
  4304                           
  4305                           ;Config register CONFIG1H @ 0x300001
  4306                           ;	Oscillator Selection bits
  4307                           ;	OSC = HS, HS oscillator
  4308                           ;	Fail-Safe Clock Monitor Enable bit
  4309                           ;	FCMEN = OFF, Fail-Safe Clock Monitor disabled
  4310                           ;	Internal/External Oscillator Switchover bit
  4311                           ;	IESO = OFF, Oscillator Switchover mode disabled
  4312   300001                     	org	3145729
  4313   300001  02                 	db	2
  4314                           
  4315                           ;Config register CONFIG2L @ 0x300002
  4316                           ;	Power-up Timer Enable bit
  4317                           ;	PWRT = OFF, PWRT disabled
  4318                           ;	Brown-out Reset Enable bits
  4319                           ;	BOREN = OFF, Brown-out Reset disabled in hardware and software
  4320                           ;	Brown Out Reset Voltage bits
  4321                           ;	BORV = 1, 
  4322   300002                     	org	3145730
  4323   300002  09                 	db	9
  4324                           
  4325                           ;Config register CONFIG2H @ 0x300003
  4326                           ;	Watchdog Timer Enable bit
  4327                           ;	WDT = OFF, WDT disabled (control is placed on the SWDTEN bit)
  4328                           ;	Watchdog Timer Postscale Select bits
  4329                           ;	WDTPS = 512, 1:512
  4330   300003                     	org	3145731
  4331   300003  12                 	db	18
  4332                           
  4333                           ; Padding undefined space
  4334   300004                     	org	3145732
  4335   300004  FF                 	db	255
  4336                           
  4337                           ;Config register CONFIG3H @ 0x300005
  4338                           ;	CCP2 MUX bit
  4339                           ;	CCP2MX = PORTC, CCP2 input/output is multiplexed with RC1
  4340                           ;	PORTB A/D Enable bit
  4341                           ;	PBADEN = OFF, PORTB<4:0> pins are configured as digital I/O on Reset
  4342                           ;	Low-Power Timer1 Oscillator Enable bit
  4343                           ;	LPT1OSC = OFF, Timer1 configured for higher power operation
  4344                           ;	MCLR Pin Enable bit
  4345                           ;	MCLRE = ON, MCLR pin enabled; RE3 input pin disabled
  4346   300005                     	org	3145733
  4347   300005  81                 	db	129
  4348                           
  4349                           ;Config register CONFIG4L @ 0x300006
  4350                           ;	Stack Full/Underflow Reset Enable bit
  4351                           ;	STVREN = ON, Stack full/underflow will cause Reset
  4352                           ;	Single-Supply ICSP Enable bit
  4353                           ;	LVP = OFF, Single-Supply ICSP disabled
  4354                           ;	Extended Instruction Set Enable bit
  4355                           ;	XINST = OFF, Instruction set extension and Indexed Addressing mode disabled (Legacy mo
      +                          de)
  4356                           ;	Background Debugger Enable bit
  4357                           ;	DEBUG = 0x1, unprogrammed default
  4358   300006                     	org	3145734
  4359   300006  81                 	db	129
  4360                           
  4361                           ; Padding undefined space
  4362   300007                     	org	3145735
  4363   300007  FF                 	db	255
  4364                           
  4365                           ;Config register CONFIG5L @ 0x300008
  4366                           ;	Code Protection bit
  4367                           ;	CP0 = OFF, Block 0 (000800-003FFFh) not code-protected
  4368                           ;	Code Protection bit
  4369                           ;	CP1 = OFF, Block 1 (004000-007FFFh) not code-protected
  4370                           ;	Code Protection bit
  4371                           ;	CP2 = OFF, Block 2 (008000-00BFFFh) not code-protected
  4372                           ;	Code Protection bit
  4373                           ;	CP3 = OFF, Block 3 (00C000-00FFFFh) not code-protected
  4374   300008                     	org	3145736
  4375   300008  0F                 	db	15
  4376                           
  4377                           ;Config register CONFIG5H @ 0x300009
  4378                           ;	Boot Block Code Protection bit
  4379                           ;	CPB = OFF, Boot block (000000-0007FFh) not code-protected
  4380                           ;	Data EEPROM Code Protection bit
  4381                           ;	CPD = OFF, Data EEPROM not code-protected
  4382   300009                     	org	3145737
  4383   300009  C0                 	db	192
  4384                           
  4385                           ;Config register CONFIG6L @ 0x30000A
  4386                           ;	Write Protection bit
  4387                           ;	WRT0 = OFF, Block 0 (000800-003FFFh) not write-protected
  4388                           ;	Write Protection bit
  4389                           ;	WRT1 = OFF, Block 1 (004000-007FFFh) not write-protected
  4390                           ;	Write Protection bit
  4391                           ;	WRT2 = OFF, Block 2 (008000-00BFFFh) not write-protected
  4392                           ;	Write Protection bit
  4393                           ;	WRT3 = OFF, Block 3 (00C000-00FFFFh) not write-protected
  4394   30000A                     	org	3145738
  4395   30000A  0F                 	db	15
  4396                           
  4397                           ;Config register CONFIG6H @ 0x30000B
  4398                           ;	Configuration Register Write Protection bit
  4399                           ;	WRTC = OFF, Configuration registers (300000-3000FFh) not write-protected
  4400                           ;	Boot Block Write Protection bit
  4401                           ;	WRTB = OFF, Boot Block (000000-0007FFh) not write-protected
  4402                           ;	Data EEPROM Write Protection bit
  4403                           ;	WRTD = OFF, Data EEPROM not write-protected
  4404   30000B                     	org	3145739
  4405   30000B  E0                 	db	224
  4406                           
  4407                           ;Config register CONFIG7L @ 0x30000C
  4408                           ;	Table Read Protection bit
  4409                           ;	EBTR0 = OFF, Block 0 (000800-003FFFh) not protected from table reads executed in other
      +                           blocks
  4410                           ;	Table Read Protection bit
  4411                           ;	EBTR1 = OFF, Block 1 (004000-007FFFh) not protected from table reads executed in other
      +                           blocks
  4412                           ;	Table Read Protection bit
  4413                           ;	EBTR2 = OFF, Block 2 (008000-00BFFFh) not protected from table reads executed in other
      +                           blocks
  4414                           ;	Table Read Protection bit
  4415                           ;	EBTR3 = OFF, Block 3 (00C000-00FFFFh) not protected from table reads executed in other
      +                           blocks
  4416   30000C                     	org	3145740
  4417   30000C  0F                 	db	15
  4418                           
  4419                           ;Config register CONFIG7H @ 0x30000D
  4420                           ;	Boot Block Table Read Protection bit
  4421                           ;	EBTRB = OFF, Boot Block (000000-0007FFh) not protected from table reads executed in ot
      +                          her blocks
  4422   30000D                     	org	3145741
  4423   30000D  40                 	db	64
  4424                           tosu	equ	0xFFF
  4425                           tosh	equ	0xFFE
  4426                           tosl	equ	0xFFD
  4427                           stkptr	equ	0xFFC
  4428                           pclatu	equ	0xFFB
  4429                           pclath	equ	0xFFA
  4430                           pcl	equ	0xFF9
  4431                           tblptru	equ	0xFF8
  4432                           tblptrh	equ	0xFF7
  4433                           tblptrl	equ	0xFF6
  4434                           tablat	equ	0xFF5
  4435                           prodh	equ	0xFF4
  4436                           prodl	equ	0xFF3
  4437                           indf0	equ	0xFEF
  4438                           postinc0	equ	0xFEE
  4439                           postdec0	equ	0xFED
  4440                           preinc0	equ	0xFEC
  4441                           plusw0	equ	0xFEB
  4442                           fsr0h	equ	0xFEA
  4443                           fsr0l	equ	0xFE9
  4444                           wreg	equ	0xFE8
  4445                           indf1	equ	0xFE7
  4446                           postinc1	equ	0xFE6
  4447                           postdec1	equ	0xFE5
  4448                           preinc1	equ	0xFE4
  4449                           plusw1	equ	0xFE3
  4450                           fsr1h	equ	0xFE2
  4451                           fsr1l	equ	0xFE1
  4452                           bsr	equ	0xFE0
  4453                           indf2	equ	0xFDF
  4454                           postinc2	equ	0xFDE
  4455                           postdec2	equ	0xFDD
  4456                           preinc2	equ	0xFDC
  4457                           plusw2	equ	0xFDB
  4458                           fsr2h	equ	0xFDA
  4459                           fsr2l	equ	0xFD9
  4460                           status	equ	0xFD8

Data Sizes:
    Strings     3
    Constant    16
    Data        58
    BSS         79
    Persistent  0
    Stack       0

Auto Spaces:
    Space          Size  Autos    Used
    COMRAM          126     29     124
    BANK0           128      2      44
    BANK1           256      0       0
    BANK2           256      0       0
    BANK3           256      0       0
    BANK4           256      0       0
    BANK5           256      0       0
    BANK6           256      0       0
    BANK7           256      0       0
    BANK8           256      0       0
    BANK9           256      0       0
    BANK10          256      0       0
    BANK11          256      0       0
    BANK12          256      0       0
    BANK13          256      0       0
    BANK14          256      0       0
    BANK15          128      0       0

Pointer List with Targets:

    vfprintf$2	PTR PTR void  size(2) Largest target is 2
		 -> sprintf@ap(COMRAM[2]), 

    vfprintf$1	PTR const unsigned char  size(2) Largest target is 3
		 -> STR_3(CODE[3]), STR_2(CODE[3]), STR_1(CODE[3]), 

    vfprintf$0	PTR struct _IO_FILE size(2) Largest target is 12
		 -> sprintf@f(COMRAM[12]), 

    CCP_PMW_MODE_CONFIG$0	PTR const struct . size(2) Largest target is 0

    S4555$source	PTR const unsigned char  size(2) Largest target is 0

    f...source	PTR const unsigned char  size(2) Largest target is 0

    S4555$buffer	PTR unsigned char  size(2) Largest target is 0

    f...buffer	PTR unsigned char  size(2) Largest target is 0

    USART_OverrunErrorHandler	PTR FTN()void  size(2) Largest target is 1
		 -> NULL(), 

    USART_FramingErrorHandler	PTR FTN()void  size(2) Largest target is 1
		 -> NULL(), 

    USART_RxDefaultInterruptHandler	PTR FTN()void  size(2) Largest target is 1
		 -> NULL(), 

    USART_ASYNCRONOUS_RX_Init@_usart.USART_OverrunErrorHandler	PTR FTN()void  size(2) Largest target is 0

    USART_ASYNCRONOUS_RX_Init@_usart.USART_FramingErrorHandler	PTR FTN()void  size(2) Largest target is 0

    USART_ASYNCRONOUS_RX_Init@_usart.USART_RxDefaultInterruptHandler	PTR FTN()void  size(2) Largest target is 0

    USART_ASYNCRONOUS_RX_Init@_usart.USART_TxDefaultInterruptHandler	PTR FTN()void  size(2) Largest target is 0

    USART_TxDefaultInterruptHandler	PTR FTN()void  size(2) Largest target is 1
		 -> NULL(), 

    USART_ASYNCRONOUS_TX_Init@_usart.USART_OverrunErrorHandler	PTR FTN()void  size(2) Largest target is 0

    USART_ASYNCRONOUS_TX_Init@_usart.USART_FramingErrorHandler	PTR FTN()void  size(2) Largest target is 0

    USART_ASYNCRONOUS_TX_Init@_usart.USART_RxDefaultInterruptHandler	PTR FTN()void  size(2) Largest target is 0

    USART_ASYNCRONOUS_TX_Init@_usart.USART_TxDefaultInterruptHandler	PTR FTN()void  size(2) Largest target is 0

    S3608$USART_OverrunErrorHandler	PTR FTN()void  size(2) Largest target is 0

    USART_Baud_Rate_Calculation@_usart.USART_OverrunErrorHandler	PTR FTN()void  size(2) Largest target is 0

    S3608$USART_FramingErrorHandler	PTR FTN()void  size(2) Largest target is 0

    USART_Baud_Rate_Calculation@_usart.USART_FramingErrorHandler	PTR FTN()void  size(2) Largest target is 0

    S3608$USART_RxDefaultInterruptHandler	PTR FTN()void  size(2) Largest target is 0

    USART_Baud_Rate_Calculation@_usart.USART_RxDefaultInterruptHandler	PTR FTN()void  size(2) Largest target is 0

    S3608$USART_TxDefaultInterruptHandler	PTR FTN()void  size(2) Largest target is 0

    USART_Baud_Rate_Calculation@_usart.USART_TxDefaultInterruptHandler	PTR FTN()void  size(2) Largest target is 0

    Timer3_Mode_Selection@_timer.TMR3_InterruptHandler	PTR FTN()void  size(2) Largest target is 0

    TMR3_InterruptHandler	PTR FTN()void  size(2) Largest target is 1
		 -> NULL(), 

    S3414$TMR3_InterruptHandler	PTR FTN()void  size(2) Largest target is 0

    Timer3_Init@_timer.TMR3_InterruptHandler	PTR FTN()void  size(2) Largest target is 0

    TMR2_InterruptHandler	PTR FTN()void  size(2) Largest target is 1
		 -> NULL(), 

    S3283$TMR2_InterruptHandler	PTR FTN()void  size(2) Largest target is 0

    Timer2_Init@_timer.TMR2_InterruptHandler	PTR FTN()void  size(2) Largest target is 0

    Timer1_Mode_Selection@_timer.TMR1_InterruptHandler	PTR FTN()void  size(2) Largest target is 0

    TMR1_InterruptHandler	PTR FTN()void  size(2) Largest target is 1
		 -> NULL(), 

    S3094$TMR1_InterruptHandler	PTR FTN()void  size(2) Largest target is 0

    Timer1_Init@_timer.TMR1_InterruptHandler	PTR FTN()void  size(2) Largest target is 0

    Timer0_Reigster_Size_Config@_timer.TMR0_InterruptHandler	PTR FTN()void  size(2) Largest target is 0

    Timer0_Mode_Selection@_timer.TMR0_InterruptHandler	PTR FTN()void  size(2) Largest target is 0

    Timer0_Prescaler_Config@_timer.TMR0_InterruptHandler	PTR FTN()void  size(2) Largest target is 0

    TMR0_InterruptHandler	PTR FTN()void  size(2) Largest target is 1
		 -> NULL(), 

    S2929$TMR0_InterruptHandler	PTR FTN()void  size(2) Largest target is 0

    Timer0_Init@_timer.TMR0_InterruptHandler	PTR FTN()void  size(2) Largest target is 0

    Interrupt_INTx_SetInterruptHandler@int_obj.EXT_InterruptHandler	PTR FTN()void  size(2) Largest target is 0

    Interrupt_INTx_Clear_Flag@int_obj.EXT_InterruptHandler	PTR FTN()void  size(2) Largest target is 0

    Interrupt_INTx_Pin_Init@int_obj.EXT_InterruptHandler	PTR FTN()void  size(2) Largest target is 0

    Interrupt_INTx_Edge_Init@int_obj.EXT_InterruptHandler	PTR FTN()void  size(2) Largest target is 0

    Interrupt_INTx_Disable@int_obj.EXT_InterruptHandler	PTR FTN()void  size(2) Largest target is 0

    S2321$EXT_InterruptHandler	PTR FTN()void  size(2) Largest target is 0

    Interrupt_INTx_Enable@int_obj.EXT_InterruptHandler	PTR FTN()void  size(2) Largest target is 0

    S2437$EXT_InterruptHandler_LOW	PTR FTN()void  size(2) Largest target is 0

    Interrupt_RBx_Init@int_obj.EXT_InterruptHandler_LOW	PTR FTN()void  size(2) Largest target is 0

    S2437$EXT_InterruptHandler_HIGH	PTR FTN()void  size(2) Largest target is 0

    Interrupt_RBx_Init@int_obj.EXT_InterruptHandler_HIGH	PTR FTN()void  size(2) Largest target is 0

    RB7_InterruptHandler_LOW	PTR FTN()void  size(2) Largest target is 1
		 -> NULL(), 

    RB7_InterruptHandler_HIGH	PTR FTN()void  size(2) Largest target is 1
		 -> NULL(), 

    RB6_InterruptHandler_LOW	PTR FTN()void  size(2) Largest target is 1
		 -> NULL(), 

    RB6_InterruptHandler_HIGH	PTR FTN()void  size(2) Largest target is 1
		 -> NULL(), 

    RB5_InterruptHandler_LOW	PTR FTN()void  size(2) Largest target is 1
		 -> NULL(), 

    RB5_InterruptHandler_HIGH	PTR FTN()void  size(2) Largest target is 1
		 -> NULL(), 

    RB4_InterruptHandler_LOW	PTR FTN()void  size(2) Largest target is 1
		 -> NULL(), 

    RB4_InterruptHandler_HIGH	PTR FTN()void  size(2) Largest target is 1
		 -> NULL(), 

    INT2_InterruptHandler	PTR FTN()void  size(2) Largest target is 1
		 -> NULL(), 

    INT1_InterruptHandler	PTR FTN()void  size(2) Largest target is 1
		 -> NULL(), 

    INT0_InterruptHandler	PTR FTN()void  size(2) Largest target is 1
		 -> NULL(), 

    MSSP_I2C_Bus_Collision_Interrupt_Configurations@_i2c.MSSP_I2C_Report_Receive_Overflow	PTR FTN()void  size(2) Largest target is 0

    MSSP_I2C_Bus_Collision_Interrupt_Configurations@_i2c.MSSP_I2C_Report_Write_Collision	PTR FTN()void  size(2) Largest target is 0

    MSSP_I2C_Bus_Collision_Interrupt_Configurations@_i2c.MSSP_I2C_DefaultInterruptHandler	PTR FTN()void  size(2) Largest target is 0

    MSSP_I2C_Interrupt_Configurations@_i2c.MSSP_I2C_Report_Receive_Overflow	PTR FTN()void  size(2) Largest target is 0

    MSSP_I2C_Interrupt_Configurations@_i2c.MSSP_I2C_Report_Write_Collision	PTR FTN()void  size(2) Largest target is 0

    MSSP_I2C_Interrupt_Configurations@_i2c.MSSP_I2C_DefaultInterruptHandler	PTR FTN()void  size(2) Largest target is 0

    MSSP_I2C_Report_Receive_Overflow_InterruptHandler	PTR FTN()void  size(2) Largest target is 1
		 -> NULL(), 

    MSSP_I2C_Slave_Mode_Configurations@_i2c.MSSP_I2C_Report_Receive_Overflow	PTR FTN()void  size(2) Largest target is 0

    MSSP_I2C_Slave_Mode_Configurations@_i2c.MSSP_I2C_Report_Write_Collision	PTR FTN()void  size(2) Largest target is 0

    MSSP_I2C_Slave_Mode_Configurations@_i2c.MSSP_I2C_DefaultInterruptHandler	PTR FTN()void  size(2) Largest target is 0

    MSSP_I2C_Master_Mode_Clock_Configurations@_i2c.MSSP_I2C_Report_Receive_Overflow	PTR FTN()void  size(2) Largest target is 0

    MSSP_I2C_Master_Mode_Clock_Configurations@_i2c.MSSP_I2C_Report_Write_Collision	PTR FTN()void  size(2) Largest target is 0

    MSSP_I2C_Master_Mode_Clock_Configurations@_i2c.MSSP_I2C_DefaultInterruptHandler	PTR FTN()void  size(2) Largest target is 0

    MSSP_I2C_Report_Write_Collision_InterruptHandler	PTR FTN()void  size(2) Largest target is 1
		 -> NULL(), 

    MSSP_I2C_DefaultInterruptHandler	PTR FTN()void  size(2) Largest target is 1
		 -> NULL(), 

    S1796$MSSP_I2C_Report_Receive_Overflow	PTR FTN()void  size(2) Largest target is 0

    MSSP_I2C_Initialize@_i2c.MSSP_I2C_Report_Receive_Overflow	PTR FTN()void  size(2) Largest target is 0

    S1796$MSSP_I2C_Report_Write_Collision	PTR FTN()void  size(2) Largest target is 0

    MSSP_I2C_Initialize@_i2c.MSSP_I2C_Report_Write_Collision	PTR FTN()void  size(2) Largest target is 0

    S1796$MSSP_I2C_DefaultInterruptHandler	PTR FTN()void  size(2) Largest target is 0

    MSSP_I2C_Initialize@_i2c.MSSP_I2C_DefaultInterruptHandler	PTR FTN()void  size(2) Largest target is 0

    gpio_pin_intialize@_pin_config	PTR const struct . size(2) Largest target is 10
		 -> lcd_2.lcd_data(BANK0[8]), lcd_2(BANK0[10]), lcd_1.lcd_data(BANK0[4]), lcd_1(BANK0[6]), 
		 -> relay_initialize@pin_obj(COMRAM[1]), led_initialize@pin_obj(COMRAM[1]), 

    gpio_pin_write_logic@_pin_config	PTR const struct . size(2) Largest target is 10
		 -> lcd_2.lcd_data(BANK0[8]), lcd_2(BANK0[10]), lcd_1.lcd_data(BANK0[4]), lcd_1(BANK0[6]), 
		 -> relay_turn_off@pin_obj(COMRAM[1]), relay_turn_on@pin_obj(COMRAM[1]), relay_initialize@pin_obj(COMRAM[1]), led_turn_off@pin_obj(COMRAM[1]), 
		 -> led_turn_on@pin_obj(COMRAM[1]), led_initialize@pin_obj(COMRAM[1]), 

    gpio_pin_direction_intialize@_pin_config	PTR const struct . size(2) Largest target is 10
		 -> lcd_2.lcd_data(BANK0[8]), lcd_2(BANK0[10]), lcd_1.lcd_data(BANK0[4]), lcd_1(BANK0[6]), 
		 -> relay_initialize@pin_obj(COMRAM[1]), led_initialize@pin_obj(COMRAM[1]), 

    port_registers	PTR volatile unsigned char [5] size(2) Largest target is 1
		 -> PORTE(BITBIGSFRlllll[1]), PORTD(BITBIGSFRlllll[1]), PORTC(BITBIGSFRlllll[1]), PORTB(BITBIGSFRlllll[1]), 
		 -> PORTA(BITBIGSFRlllll[1]), 

    lat_registers	PTR volatile unsigned char [5] size(2) Largest target is 1
		 -> LATE(BITBIGSFRllllh[1]), LATD(BITBIGSFRllllh[1]), LATC(BITBIGSFRllllh[1]), LATB(BITBIGSFRllllh[1]), 
		 -> LATA(BITBIGSFRlllll[1]), 

    tris_registers	PTR volatile unsigned char [5] size(2) Largest target is 1
		 -> TRISD(ABS[1]), TRISC(ABS[1]), TRISB(ABS[1]), TRISE(ABS[1]), 
		 -> TRISA(BITBIGSFRlllll[1]), 

    Data_EEPROM_ReadByte@bData	PTR unsigned char  size(2) Largest target is 1
		 -> eeprom_read_val(COMRAM[1]), 

    CCP_Compare_Mode_Config@_ccp_obj.CCP2_InterruptHandler	PTR FTN()void  size(2) Largest target is 0

    CCP_Compare_Mode_Config@_ccp_obj.CCP1_InterruptHandler	PTR FTN()void  size(2) Largest target is 0

    CCP_Capture_Mode_Config@_ccp_obj.CCP2_InterruptHandler	PTR FTN()void  size(2) Largest target is 0

    CCP_Capture_Mode_Config@_ccp_obj.CCP1_InterruptHandler	PTR FTN()void  size(2) Largest target is 0

    CCP_Mode_Timer_Selection@_ccp_obj.CCP2_InterruptHandler	PTR FTN()void  size(2) Largest target is 0

    CCP_Mode_Timer_Selection@_ccp_obj.CCP1_InterruptHandler	PTR FTN()void  size(2) Largest target is 0

    CCP_Interrupt_Config@_ccp_obj.CCP2_InterruptHandler	PTR FTN()void  size(2) Largest target is 0

    CCP_Interrupt_Config@_ccp_obj.CCP1_InterruptHandler	PTR FTN()void  size(2) Largest target is 0

    CCP2_InterruptHandler	PTR FTN()void  size(2) Largest target is 1
		 -> NULL(), 

    CCP1_InterruptHandler	PTR FTN()void  size(2) Largest target is 1
		 -> NULL(), 

    CCP_Set_Compare_Mode_Value@_ccp_obj.CCP2_InterruptHandler	PTR FTN()void  size(2) Largest target is 0

    CCP_Set_Compare_Mode_Value@_ccp_obj.CCP1_InterruptHandler	PTR FTN()void  size(2) Largest target is 0

    CCP_DeInit@_ccp_obj.CCP2_InterruptHandler	PTR FTN()void  size(2) Largest target is 0

    CCP_DeInit@_ccp_obj.CCP1_InterruptHandler	PTR FTN()void  size(2) Largest target is 0

    S1142$CCP2_InterruptHandler	PTR FTN()void  size(2) Largest target is 0

    CCP_Init@_ccp_obj.CCP2_InterruptHandler	PTR FTN()void  size(2) Largest target is 0

    S1142$CCP1_InterruptHandler	PTR FTN()void  size(2) Largest target is 0

    CCP_Init@_ccp_obj.CCP1_InterruptHandler	PTR FTN()void  size(2) Largest target is 0

    configure_voltage_reference@_adc.ADC_InterruptHandler	PTR FTN()void  size(2) Largest target is 0

    select_result_format@_adc.ADC_InterruptHandler	PTR FTN()void  size(2) Largest target is 0

    ADC_GetConversionResult@_adc.ADC_InterruptHandler	PTR FTN()void  size(2) Largest target is 0

    ADC_InterruptHandler	PTR FTN()void  size(2) Largest target is 1
		 -> NULL(), 

    S723$ADC_InterruptHandler	PTR FTN()void  size(2) Largest target is 0

    ADC_Init@_adc.ADC_InterruptHandler	PTR FTN()void  size(2) Largest target is 0

    led_turn_off@led	PTR const struct . size(2) Largest target is 1
		 -> led1(COMRAM[1]), 

    led_turn_on@led	PTR const struct . size(2) Largest target is 1
		 -> led1(COMRAM[1]), 

    led_initialize@led	PTR const struct . size(2) Largest target is 1
		 -> led1(COMRAM[1]), 

    lcd_8bit_send_enable_signal@lcd	PTR const struct . size(2) Largest target is 10
		 -> lcd_2(BANK0[10]), 

    lcd_4bit_send_enable_signal@lcd	PTR const struct . size(2) Largest target is 6
		 -> lcd_1(BANK0[6]), 

    lcd_send_4bits@lcd	PTR const struct . size(2) Largest target is 6
		 -> lcd_1(BANK0[6]), 

    sp__memset	PTR void  size(2) Largest target is 0

    lcd_8bit_send_command@lcd	PTR const struct . size(2) Largest target is 10
		 -> lcd_2(BANK0[10]), 

    lcd_8bit_intialize@lcd	PTR const struct . size(2) Largest target is 10
		 -> lcd_2(BANK0[10]), 

    lcd_4bit_send_command@lcd	PTR const struct . size(2) Largest target is 6
		 -> lcd_1(BANK0[6]), 

    lcd_4bit_intialize@lcd	PTR const struct . size(2) Largest target is 6
		 -> lcd_1(BANK0[6]), 


Critical Paths under _main in COMRAM

    _led_turn_on->_gpio_pin_write_logic
    _led_turn_off->_gpio_pin_write_logic
    _led_initialize->_gpio_pin_intialize
    _ecu_layer_intialize->_lcd_8bit_intialize
    _lcd_8bit_intialize->_lcd_8bit_send_command
    _lcd_8bit_send_command->_lcd_8bit_send_enable_signal
    _lcd_8bit_send_enable_signal->_gpio_pin_write_logic
    _lcd_4bit_intialize->_lcd_4bit_send_command
    _lcd_4bit_send_command->_lcd_send_4bits
    _lcd_send_4bits->_gpio_pin_write_logic
    _lcd_4bit_send_enable_signal->_gpio_pin_write_logic
    _gpio_pin_intialize->_gpio_pin_write_logic

Critical Paths under _InterruptManager in COMRAM

    _InterruptManager->_RB4_ISR
    _InterruptManager->_RB5_ISR
    _InterruptManager->_RB6_ISR
    _InterruptManager->_RB7_ISR

Critical Paths under _main in BANK0

    None.

Critical Paths under _InterruptManager in BANK0

    None.

Critical Paths under _main in BANK1

    None.

Critical Paths under _InterruptManager in BANK1

    None.

Critical Paths under _main in BANK2

    None.

Critical Paths under _InterruptManager in BANK2

    None.

Critical Paths under _main in BANK3

    None.

Critical Paths under _InterruptManager in BANK3

    None.

Critical Paths under _main in BANK4

    None.

Critical Paths under _InterruptManager in BANK4

    None.

Critical Paths under _main in BANK5

    None.

Critical Paths under _InterruptManager in BANK5

    None.

Critical Paths under _main in BANK6

    None.

Critical Paths under _InterruptManager in BANK6

    None.

Critical Paths under _main in BANK7

    None.

Critical Paths under _InterruptManager in BANK7

    None.

Critical Paths under _main in BANK8

    None.

Critical Paths under _InterruptManager in BANK8

    None.

Critical Paths under _main in BANK9

    None.

Critical Paths under _InterruptManager in BANK9

    None.

Critical Paths under _main in BANK10

    None.

Critical Paths under _InterruptManager in BANK10

    None.

Critical Paths under _main in BANK11

    None.

Critical Paths under _InterruptManager in BANK11

    None.

Critical Paths under _main in BANK12

    None.

Critical Paths under _InterruptManager in BANK12

    None.

Critical Paths under _main in BANK13

    None.

Critical Paths under _InterruptManager in BANK13

    None.

Critical Paths under _main in BANK14

    None.

Critical Paths under _InterruptManager in BANK14

    None.

Critical Paths under _main in BANK15

    None.

Critical Paths under _InterruptManager in BANK15

    None.

Call Graph Tables:

 ---------------------------------------------------------------------------------
 (Depth) Function   	        Calls       Base Space   Used Autos Params    Refs
 ---------------------------------------------------------------------------------
 (0) _main                                                 3     3      0   63463
                                              0 BANK0      2     2      0
               _Data_EEPROM_ReadByte
              _Data_EEPROM_WriteByte
              _application_intialize
                     _led_initialize
                       _led_turn_off
                        _led_turn_on
 ---------------------------------------------------------------------------------
 (1) _led_turn_on                                          5     3      2    5323
                                             11 COMRAM     4     2      2
               _gpio_pin_write_logic
 ---------------------------------------------------------------------------------
 (1) _led_turn_off                                         5     3      2    5323
                                             11 COMRAM     4     2      2
               _gpio_pin_write_logic
 ---------------------------------------------------------------------------------
 (1) _led_initialize                                       5     3      2    7030
                                             15 COMRAM     5     3      2
                 _gpio_pin_intialize
 ---------------------------------------------------------------------------------
 (1) _application_intialize                                1     1      0   45091
                _ecu_layer_intialize
 ---------------------------------------------------------------------------------
 (2) _ecu_layer_intialize                                  1     1      0   45090
                 _lcd_4bit_intialize
                 _lcd_8bit_intialize
 ---------------------------------------------------------------------------------
 (3) _lcd_8bit_intialize                                   6     4      2   19628
                                             23 COMRAM     6     4      2
                 _gpio_pin_intialize
              _lcd_8bit_send_command
 ---------------------------------------------------------------------------------
 (4) _lcd_8bit_send_command                                9     6      3   12359
                                             14 COMRAM     9     6      3
               _gpio_pin_write_logic
        _lcd_8bit_send_enable_signal
 ---------------------------------------------------------------------------------
 (5) _lcd_8bit_send_enable_signal                          3     1      2    5112
                                             11 COMRAM     3     1      2
               _gpio_pin_write_logic
 ---------------------------------------------------------------------------------
 (3) _lcd_4bit_intialize                                   6     4      2   25459
                                             19 COMRAM     6     4      2
                 _gpio_pin_intialize
              _lcd_4bit_send_command
 ---------------------------------------------------------------------------------
 (4) _lcd_4bit_send_command                                4     1      3   18190
                                             15 COMRAM     4     1      3
               _gpio_pin_write_logic
        _lcd_4bit_send_enable_signal
                     _lcd_send_4bits
 ---------------------------------------------------------------------------------
 (5) _lcd_send_4bits                                       4     1      3    5702
                                             11 COMRAM     4     1      3
               _gpio_pin_write_logic
 ---------------------------------------------------------------------------------
 (5) _lcd_4bit_send_enable_signal                          3     1      2    5264
                                             11 COMRAM     3     1      2
               _gpio_pin_write_logic
 ---------------------------------------------------------------------------------
 (2) _gpio_pin_intialize                                   4     2      2    6802
                                             11 COMRAM     4     2      2
       _gpio_pin_direction_intialize
               _gpio_pin_write_logic
 ---------------------------------------------------------------------------------
 (2) _gpio_pin_write_logic                                10     7      3    4891
                                              1 COMRAM    10     7      3
 ---------------------------------------------------------------------------------
 (3) _gpio_pin_direction_intialize                         9     7      2     559
                                              1 COMRAM     9     7      2
 ---------------------------------------------------------------------------------
 (1) _Data_EEPROM_WriteByte                                5     2      3     416
                                              1 COMRAM     4     1      3
 ---------------------------------------------------------------------------------
 (1) _Data_EEPROM_ReadByte                                 5     1      4     265
                                              1 COMRAM     5     1      4
 ---------------------------------------------------------------------------------
 Estimated maximum stack depth 5
 ---------------------------------------------------------------------------------
 (Depth) Function   	        Calls       Base Space   Used Autos Params    Refs
 ---------------------------------------------------------------------------------
 (7) _InterruptManager                                     0     0      0     120
                            _ADC_ISR
                           _CCP1_ISR
                           _CCP2_ISR
                           _INT0_ISR
                           _INT1_ISR
                           _INT2_ISR
                    _MSSP_I2C_BC_ISR
                       _MSSP_I2C_ISR
                            _RB4_ISR
                            _RB5_ISR
                            _RB6_ISR
                            _RB7_ISR
                           _TMR0_ISR
                           _TMR1_ISR
                           _TMR2_ISR
                           _TMR3_ISR
                       _USART_RX_ISR
                       _USART_TX_ISR
 ---------------------------------------------------------------------------------
 (8) _USART_TX_ISR                                         0     0      0       0
 ---------------------------------------------------------------------------------
 (8) _USART_RX_ISR                                         0     0      0       0
 ---------------------------------------------------------------------------------
 (8) _TMR3_ISR                                             0     0      0       0
 ---------------------------------------------------------------------------------
 (8) _TMR2_ISR                                             0     0      0       0
 ---------------------------------------------------------------------------------
 (8) _TMR1_ISR                                             0     0      0       0
 ---------------------------------------------------------------------------------
 (8) _TMR0_ISR                                             0     0      0       0
 ---------------------------------------------------------------------------------
 (8) _RB7_ISR                                              1     1      0      30
                                              0 COMRAM     1     1      0
 ---------------------------------------------------------------------------------
 (8) _RB6_ISR                                              1     1      0      30
                                              0 COMRAM     1     1      0
 ---------------------------------------------------------------------------------
 (8) _RB5_ISR                                              1     1      0      30
                                              0 COMRAM     1     1      0
 ---------------------------------------------------------------------------------
 (8) _RB4_ISR                                              1     1      0      30
                                              0 COMRAM     1     1      0
 ---------------------------------------------------------------------------------
 (8) _MSSP_I2C_ISR                                         0     0      0       0
 ---------------------------------------------------------------------------------
 (8) _MSSP_I2C_BC_ISR                                      0     0      0       0
 ---------------------------------------------------------------------------------
 (8) _INT2_ISR                                             0     0      0       0
 ---------------------------------------------------------------------------------
 (8) _INT1_ISR                                             0     0      0       0
 ---------------------------------------------------------------------------------
 (8) _INT0_ISR                                             0     0      0       0
 ---------------------------------------------------------------------------------
 (8) _CCP2_ISR                                             0     0      0       0
 ---------------------------------------------------------------------------------
 (8) _CCP1_ISR                                             0     0      0       0
 ---------------------------------------------------------------------------------
 (8) _ADC_ISR                                              0     0      0       0
 ---------------------------------------------------------------------------------
 Estimated maximum stack depth 8
 ---------------------------------------------------------------------------------

 Call Graph Graphs:

 _main (ROOT)
   _Data_EEPROM_ReadByte
   _Data_EEPROM_WriteByte
   _application_intialize
     _ecu_layer_intialize
       _lcd_4bit_intialize
         _gpio_pin_intialize
           _gpio_pin_direction_intialize
           _gpio_pin_write_logic
         _lcd_4bit_send_command
           _gpio_pin_write_logic
           _lcd_4bit_send_enable_signal
             _gpio_pin_write_logic
           _lcd_send_4bits
             _gpio_pin_write_logic
       _lcd_8bit_intialize
         _gpio_pin_intialize
         _lcd_8bit_send_command
           _gpio_pin_write_logic
           _lcd_8bit_send_enable_signal
             _gpio_pin_write_logic
   _led_initialize
     _gpio_pin_intialize
   _led_turn_off
     _gpio_pin_write_logic
   _led_turn_on
     _gpio_pin_write_logic

 _InterruptManager (ROOT)
   _ADC_ISR
   _CCP1_ISR
   _CCP2_ISR
   _INT0_ISR
   _INT1_ISR
   _INT2_ISR
   _MSSP_I2C_BC_ISR
   _MSSP_I2C_ISR
   _RB4_ISR
   _RB5_ISR
   _RB6_ISR
   _RB7_ISR
   _TMR0_ISR
   _TMR1_ISR
   _TMR2_ISR
   _TMR3_ISR
   _USART_RX_ISR
   _USART_TX_ISR

 Address spaces:
Name               Size   Autos  Total    Cost      Usage
BIGRAM             F7F      0       0      48        0.0%
EEDATA             400      0       0       0        0.0%
BITBANK14          100      0       0      32        0.0%
BANK14             100      0       0      33        0.0%
BITBANK13          100      0       0      30        0.0%
BANK13             100      0       0      31        0.0%
BITBANK12          100      0       0      28        0.0%
BANK12             100      0       0      29        0.0%
BITBANK11          100      0       0      26        0.0%
BANK11             100      0       0      27        0.0%
BITBANK10          100      0       0      24        0.0%
BANK10             100      0       0      25        0.0%
BITBANK9           100      0       0      22        0.0%
BANK9              100      0       0      23        0.0%
BITBANK8           100      0       0      20        0.0%
BANK8              100      0       0      21        0.0%
BITBANK7           100      0       0      18        0.0%
BANK7              100      0       0      19        0.0%
BITBANK6           100      0       0      16        0.0%
BANK6              100      0       0      17        0.0%
BITBANK5           100      0       0      14        0.0%
BANK5              100      0       0      15        0.0%
BITBANK4           100      0       0      12        0.0%
BANK4              100      0       0      13        0.0%
BITBANK3           100      0       0      10        0.0%
BANK3              100      0       0      11        0.0%
BITBANK2           100      0       0       8        0.0%
BANK2              100      0       0       9        0.0%
BITBANK1           100      0       0       6        0.0%
BANK1              100      0       0       7        0.0%
BITBANK15           80      0       0      34        0.0%
BANK15              80      0       0      35        0.0%
BITBANK0            80      0       0       4        0.0%
BANK0               80      2      2C       5       34.4%
BITCOMRAM           7E      0       0       0        0.0%
COMRAM              7E     1D      7C       1       98.4%
BITBIGSFRhlhhhl     18      0       0      37        0.0%
BITBIGSFRhh          D      0       0      36        0.0%
BITBIGSFRlllhh       6      0       0      44        0.0%
BITBIGSFRhlhhhl      5      0       0      38        0.0%
BITBIGSFRllhllh      4      0       0      41        0.0%
BITBIGSFRllllh       4      0       0      45        0.0%
BITBIGSFRllhllh      4      0       0      42        0.0%
BITBIGSFRlllll       4      0       0      46        0.0%
BITBIGSFRllhllh      1      0       0      40        0.0%
BITBIGSFRhlhhhl      1      0       0      39        0.0%
BITBIGSFRllhlll      1      0       0      43        0.0%
BIGSFR               0      0       0     200        0.0%
BITSFR               0      0       0     200        0.0%
SFR                  0      0       0     200        0.0%
STACK                0      0       0       2        0.0%
NULL                 0      0       0       0        0.0%
ABS                  0      0      A8      47        0.0%
DATA                 0      0      A8       3        0.0%
CODE                 0      0       0       0        0.0%


Microchip Technology PIC18 Macro Assembler V2.41 build 20230208172133 
Symbol Table                                                                                   Sat Jul 22 01:10:22 2023

                               ??_InterruptManager 004B                                    ?_lcd_send_4bits 0055  
                                      _SSPSTATbits 0FC7                                                 l74 1BB4  
                                               l69 18BA                          _USART_FramingErrorHandler 0007  
                                              l121 19DA                                                l114 1792  
                                              l331 1E1E                                                l182 1DAA  
                                              l270 19FA                                                l176 1C88  
                                              l281 1ACC                                                l274 1A56  
                                              l179 1DE0                                                l620 1D32  
                                              l284 1AE4                                                l277 1A6E  
                                              l288 1B42                                                l625 1D74  
                                              l617 1D16                                                l713 1C20  
                                              l619 1D24                                                l673 153E  
                                              l692 166A                          _RB5_InterruptHandler_HIGH 0025  
                                  __end_of_ADC_ISR 1EF4                __end_of_lcd_4bit_send_enable_signal 1DE2  
                      _lcd_4bit_send_enable_signal 1DAC                                led_initialize@F3048 0048  
                                              prod 0FF3                              relay_initialize@F3042 0044  
                                              wreg 0FE8                                       ?_led_turn_on 0055  
                      lcd_send_4bits@_data_command 0057                                    __end_of_RB4_ISR 1E88  
                                  __end_of_RB5_ISR 1E6E                                    __end_of_RB6_ISR 1E54  
                                  __end_of_RB7_ISR 1E3A  _MSSP_I2C_Report_Receive_Overflow_InterruptHandler 0031  
                                             l1615 1ECE                                               l5000 1950  
                                             l5002 1962                                               l5012 197E  
                                             l5020 19D8                                               l5004 196A  
                                             l5100 172E                                               l5030 17B2  
                                             l5014 19B8                                               l5006 197A  
                                             l5110 177E                                               l5102 173E  
                                             l6000 1526                                               l5040 17F2  
                                             l5032 17D2                                               l5024 1794  
                                             l5016 19BA                                               l5104 174E  
                                             l5112 1790                                               l5200 19DC  
                                             l5050 1840                                               l5042 17F4  
                                             l5026 1798                                               l5018 19CA  
                                             l5106 175E                                               l5210 1A36  
                                             l5202 19E0                                               l5300 1D6E  
                                             l5060 1886                                               l5052 1846  
                                             l5044 1804                                               l5028 17AA  
                                             l5108 176E                                               l5212 1A48  
                                             l5204 19F2                                               l5220 1A58  
                                             l5302 1D72                                               l5062 1896  
                                             l5054 1856                                               l5046 1812  
                                             l5038 17D6                                               l5070 166C  
                                             l5206 19FE                                               l5214 1A54  
                                             l5230 1ABC                                               l5222 1A6A  
                                             l5064 18A6                                               l5056 1866  
                                             l5048 1822                                               l5072 1670  
                                             l5208 1A34                                               l5240 1AE8  
                                             l5224 1A72                                               l5250 1CEE  
                                             l5058 1876                                               l5066 18B8  
                                             l5090 16DC                                               l5074 1682  
                                             l5154 1E06                                               l5306 1ECA  
                                             l5242 1B1E                                               l5234 1ACE  
                                             l5226 1AA8                                               l5218 1A58  
                                             l5260 1D04                                               l5252 1CEE  
                                             l5092 16EA                                               l5084 16AE  
                                             l5076 168A                                               l5156 1E06  
                                             l5308 1ECA                                               l5244 1B20  
                                             l5236 1ACE                                               l5228 1AAA  
                                             l5270 1D10                                               l5262 1D06  
                                             l5254 1CF6                                               l5094 16FA  
                                             l5086 16CA                                               l5078 16AA  
                                             l5158 1E12                                               l5246 1B32  
                                             l5238 1AE0                                               l5280 1D34  
                                             l5272 1D14                                               l5264 1D08  
                                             l5256 1CFC                                               l5096 1718  
                                             l5088 16CC                                               l5290 1D5A  
                                             l5282 1D46                                               l5274 1D30  
                                             l5266 1D0A                                               l5258 1D00  
                                             l5098 171E                                               l5292 1D5C  
                                             l5284 1D4E                                               l5268 1D0C  
                                             l5294 1D5E                                               l5286 1D54  
                                             l5278 1D34                                               l4902 163E  
                                             l5296 1D60                                               l5288 1D58  
                                             l4920 143C                                               l4912 13FC  
                                             l4904 1668                                               l5298 1D62  
                                             l4922 149E                                               l4914 1400  
                                             l4916 1412                                               l4940 1C38  
                                             l4926 14FA                                               l4918 1434  
                                             l4950 1DAC                                               l4942 1C50  
                                             l4928 153C                                               l4952 1DC0  
                                             l4944 1C6A                                               l4936 1C22  
                                             l4960 1D76                                               l4890 1544  
                                             l4954 1DC8                                               l4938 1C22  
                                             l4962 1D76                                               l4892 1556  
                                             l4980 1BF2                                               l4972 1BB6  
                                             l4956 1DDE                                               l4948 1DAC  
                                             l4964 1D8A                                               l4894 1578  
                                             l4982 1C1E                                               l4974 1BB6  
                                             l4990 1B56                                               l4966 1D92  
                                             l4896 1580                                               l4888 1540  
                                             l4976 1BC8                                               l4992 1B5E  
                                             l4968 1DA8                                               l4898 15E2  
                                             l4978 1BEA                                               l4994 1BB2  
                                             l4986 1B44                                               l5970 18BC  
                                             l4988 1B44                                               l5980 18EA  
                                             l5972 18C0                                               l4998 194C  
                                             l5982 1904                                               l5974 18CC  
                          ??_Data_EEPROM_WriteByte 004E                                               l5984 1916  
                                             l5976 18DA                                               l5968 18BC  
                                             l5986 1928                                               l5978 18E8  
                                             l5988 1938                                               l5998 1652  
                                             STR_1 1011                 lcd_8bit_send_command@l_pin_counter 0060  
                                             _LATA 0F89                                               u3110 1412  
                                             _LATB 0F8A                                               u3111 140E  
                                             _LATC 0F8B                                               u3120 1434  
                                             u3104 1602                                               u3200 1962  
                                             _LATD 0F8C                                               u3121 1430  
                                             u3105 15FE                                               u3201 195E  
                                             _LATE 0F8D                                               u3220 19CA  
                                             u3221 19C6                                               u3150 1512  
                                             u3134 145C                                               u3070 1556  
                                             u3230 17AA                                               u3214 19A8  
                                             u3151 150C                                               u3135 1458  
                                             u3071 1552                                               u3231 17A6  
                                             u3215 19A4                                               u3160 1514  
                                             u3144 14BE                                               u3080 1578  
                                             u3240 1804                                               u3145 14BA  
                                             u3081 1574                                               u3241 1800  
                                             u3410 1D24                                               u3170 1BC8  
                                             u3250 1682                                               u3411 1D20  
                                             u3171 1BC4                                               u3251 167E  
                                             u3180 1BEA                                               u3260 16DC  
                                             u4140 1928                                               u3181 1BE6  
                                             u3261 16D8                                               u3405 1B30  
                                             u4141 1924                                               u3430 1D46  
                                             u3094 15A0                                               u3190 1B56  
                                             u3350 19F2                                               u3431 1D42  
                                             u3095 159C                                               u3191 1B52  
                                             u4207 180A                                               u3351 19EE  
                                             u3407 1B32                                               u3425 1D2E  
                                             u4217 1828                                               u3426 1D30  
                                             u3370 1A6A                                               u4227 1842  
                                             u3371 1A66                                               u4237 1DC2  
                                             u3365 1A46                                               u4157 18F6  
                                             u3390 1AE0                                               u4167 16E2  
                                             u3367 1A48                                               u3391 1ADC  
                                             u4177 1700                                               u3385 1ABA  
                                             u4187 171A                                               u3387 1ABC  
                                             u4197 1D8C                                               _TMR2 0FCC  
                          ??_application_intialize 0067                      ??_lcd_4bit_send_enable_signal 0057  
                         _RB4_InterruptHandler_LOW 0027                                               _led1 007C  
                                             _led2 0077                                               _main 18BC  
                                 __end_of_CCP1_ISR 1EF0                                   __end_of_CCP2_ISR 1EEC  
                         _RB7_InterruptHandler_LOW 001B                                               fsr2h 0FDA  
                                             indf2 0FDF                                               fsr1l 0FE1  
                                             fsr2l 0FD9                                               btemp 007D  
                           __end_of_led_initialize 1A58                                               prodl 0FF3  
                                             start 000E                                      ?_led_turn_off 0055  
                    __end_of_lcd_8bit_send_command 19DC                                       ___param_bank 0000  
                            _lcd_4bit_send_command 1B44                               _gpio_pin_write_logic 1540  
                            lcd_4bit_intialize@lcd 005D                              lcd_4bit_intialize@ret 0062  
                                 __end_of_INT0_ISR 1EE8                                   __end_of_INT1_ISR 1EE4  
                                 __end_of_INT2_ISR 1EE0                                              ?_main 004A  
                                            _EEADR 0FA9                                              i2l544 1EEA  
                                            i2l457 1EF2                                              i2l539 1EEE  
                                            i2l933 1EE6                                              i2l861 1ED6  
                                            i2l943 1EDE                                              i2l938 1EE2  
                                            i2l866 1EDA                                              i2l954 1E86  
                                            i2l965 1E6C                                              i2l976 1E52  
                                            i2l987 1E38                                              _RCREG 0FAE  
                              relay_turn_off@F3052 0042                                              _TMR0H 0FD7  
                                            _TMR1H 0FCF                                              _TMR0L 0FD6  
                                            _TMR1L 0FCE                                              _TMR3H 0FB3  
                                            _TMR3L 0FB2                                              _SPBRG 0FAF  
                                            _PORTA 0F80                                              _PORTB 0F81  
                                            _PORTC 0F82                                              _PORTD 0F83  
                                            _PORTE 0F84                                              _TRISA 0F92  
                                            _TRISB 0F93                                              _TRISC 0F94  
                                            _TRISD 0F95                                              _TRISE 0F96  
                                            _TXREG 0FAD                                   __end_of_TMR0_ISR 1EC2  
                                 __end_of_TMR1_ISR 1EB6                                   __end_of_TMR2_ISR 1ECA  
                                 __end_of_TMR3_ISR 1EAA                                              _lcd_1 009E  
                                            _lcd_2 0094                                              tablat 0FF5  
                                            ttemp5 007E                                              ttemp6 0081  
                                            ttemp7 0085                                              status 0FD8  
                                            wtemp8 007E                                    ?_led_initialize 0059  
                     __end_of_Data_EEPROM_ReadByte 1D76                                     ??_led_turn_off 0057  
                                  __initialization 1C8A                                       __end_of_main 194C  
                            ?_gpio_pin_write_logic 004B                                          ??_ADC_ISR 004A  
                                    _lat_registers 0067                                             ??_main 00AA  
                                    __activetblptr 0003                              _TMR3_InterruptHandler 000D  
                                 led_turn_on@F3053 0047                                          ??_RB4_ISR 004A  
                                        ??_RB5_ISR 004A                                          ??_RB6_ISR 004A  
                                        ??_RB7_ISR 004A                                             _ADRESH 0FC4  
                                           _EEADRH 0FAA                                             _ADRESL 0FC3  
                                           _EEDATA 0FA8                                             _CCPR1H 0FBF  
                                           _CCPR2H 0FBC                                             _CCPR1L 0FBE  
                                           _CCPR2L 0FBB                                             _EECON2 0FA7  
                                           i2l1200 13D8                                             i2l1203 13F8  
                                           i2l1160 1038                                             i2l1170 1144  
                                           i2l1162 1058                                             i2l1316 1EB4  
                                           i2l1180 1298                                             i2l1172 1188  
                                           i2l1164 1078                                             i2l1413 1EA8  
                                           i2l1246 1EC0                                             i2l1190 1338  
                                           i2l1182 12B8                                             i2l1174 11CC  
                                           i2l1166 10BC                                             i2l1192 1358  
                                           i2l1184 12D8                                             i2l1176 1210  
                                           i2l1168 1100                                             i2l1194 1378  
                                           i2l1186 12F8                                             i2l1178 1254  
                                           i2l1196 1398                                             i2l1188 1318  
                                           i2l1198 13B8                                             i2l1368 1EC8  
                                           i2l1544 1ED2                                             i2l1553 1EF4  
                                           i2l4300 120A                                             i2l4310 124E  
                                           i2l4302 121E                                             i2l4230 1026  
                                           i2l4320 1292                                             i2l4312 1262  
                                           i2l4304 122C                                             i2l4240 1074  
                                           i2l4232 1034                                             i2l2730 1EEC  
                                           i2l2810 1ED4                                             i2l4330 12E6  
                                           i2l4322 12A6                                             i2l4314 1270  
                                           i2l4306 123A                                             i2l4250 10B6  
                                           i2l4242 1086                                             i2l4234 1046  
                                           i2l2724 1EF0                                             i2l4340 1334  
                                           i2l4332 12F4                                             i2l4324 12B4  
                                           i2l4316 127E                                             i2l4308 124A  
                                           i2l4260 10FA                                             i2l4252 10CA  
                                           i2l4244 1094                                             i2l4236 1054  
                                           i2l4228 1018                                             i2l2822 1EE4  
                                           i2l4350 1386                                             i2l4342 1346  
                                           i2l4334 1306                                             i2l4326 12C6  
                                           i2l4318 128E                                             i2l4270 113E  
                                           i2l4262 110E                                             i2l4254 10D8  
                                           i2l4246 10A2                                             i2l4238 1066  
                                           i2l2736 1EE8                                             i2l2816 1ED8  
                                           i2l2840 1E70                                             i2l4360 13D4  
                                           i2l4352 1394                                             i2l4344 1354  
                                           i2l4336 1314                                             i2l4328 12D4  
                                           i2l4280 1182                                             i2l4272 1152  
                                           i2l4264 111C                                             i2l4256 10E6  
                                           i2l4248 10B2                                             i2l2834 1EDC  
                                           i2l2842 1E72                                             i2l4362 13E6  
                                           i2l4354 13A6                                             i2l4346 1366  
                                           i2l4338 1326                                             i2l4290 11C6  
                                           i2l4282 1196                                             i2l4274 1160  
                                           i2l4266 112A                                             i2l4258 10F6  
                                           i2l2828 1EE0                                             i2l2940 1EB8  
                                           i2l4364 13F4                                             i2l4356 13B4  
                                           i2l4348 1374                                             i2l4292 11DA  
                                           i2l4284 11A4                                             i2l4276 116E  
                                           i2l4268 113A                                             i2l2862 1E6C  
                                           i2l2854 1E56                                             i2l2870 1E3E  
                                           i2l2942 1EBC                                             i2l2950 1EAC  
                                           i2l4358 13C6                                             i2l4294 11E8  
                                           i2l4286 11B2                                             i2l4278 117E  
                                           i2l2848 1E86                                             i2l2856 1E58  
                                           i2l2952 1EB0                                             i2l4296 11F6  
                                           i2l4288 11C2                                             i2l2890 1E38  
                                           i2l2882 1E22                                             i2l2938 1EB6  
                                           i2l4298 1206                                             i2l2876 1E52  
                                           i2l2868 1E3C                                             i2l2884 1E24  
                                           i2l2948 1EAA                                             i2l2964 1E9E  
                                           i2l2980 1EF4                                             i2l2958 1EC2  
                                           i2l2966 1EA0                                             i2l2974 1ED0  
                                           i2l2968 1EA4                                             _SPBRGH 0FB0  
                                           _SSPADD 0FC8                                             _SSPBUF 0FC9  
                           ?_lcd_4bit_send_command 0059                                             clear_0 1CDE  
                            led_initialize@pin_obj 005D                                             isa$std 0001  
          gpio_pin_direction_intialize@_pin_config 004B                                          ?_CCP1_ISR 004A  
                                     __pdataCOMRAM 0067                                          ?_CCP2_ISR 004A  
                                     __mediumconst 0000                                             tblptrh 0FF7  
                                           tblptrl 0FF6                                             tblptru 0FF8  
                                       __accesstop 0080                            __end_of__initialization 1CE4  
                                        ?_INT0_ISR 004A                                          ?_INT1_ISR 004A  
                                        ?_INT2_ISR 004A                                      ___rparam_used 0001  
                                 ??_lcd_send_4bits 0058                                  led_initialize@led 0059  
                                led_initialize@ret 005C                                  RB5_ISR@RB5_Source 004A  
                           ??_gpio_pin_write_logic 004E                                     __pcstackCOMRAM 004A  
                                     __pidataBANK0 1DE2                                          ?_TMR0_ISR 004A  
                                        ?_TMR1_ISR 004A                                          ?_TMR2_ISR 004A  
                                        ?_TMR3_ISR 004A                           lcd_4bit_send_command@lcd 0059  
                         lcd_4bit_send_command@ret 005C                                 _lcd_8bit_intialize 166C  
                                       ??_CCP1_ISR 004A                                         ??_CCP2_ISR 004A  
                          Data_EEPROM_ReadByte@ret 004F                               _Data_EEPROM_ReadByte 1D34  
                             __end_of_led_turn_off 1B44                                ?_lcd_8bit_intialize 0061  
                                       __pbssBANK0 00A4                      __end_of_Data_EEPROM_WriteByte 1D34  
                            _INT0_InterruptHandler 002F                                         ??_INT0_ISR 004A  
                                       ??_INT1_ISR 004A                                         ??_INT2_ISR 004A  
                    __end_of_application_intialize 1ED0                               ??_lcd_8bit_intialize 0063  
                  _USART_TxDefaultInterruptHandler 000B                                         ??_TMR0_ISR 004A  
                                       ??_TMR1_ISR 004A                                         ??_TMR2_ISR 004A  
                                       ??_TMR3_ISR 004A                                  led_turn_off@F3058 0046  
                                          _ADC_ISR 1EF0                                  RB7_ISR@RB7_Source 004A  
                                          _RB4_ISR 1E6E                                            _RB5_ISR 1E54  
                            ?_Data_EEPROM_ReadByte 004B                                            _RB6_ISR 1E3A  
                                          _RB7_ISR 1E20                          _RB6_InterruptHandler_HIGH 0021  
                                    ?_MSSP_I2C_ISR 004A                                         _eeprom_val 0040  
                             led_turn_toggle@F3063 0045                                            i2u50_40 1E4E  
                                          i2u50_41 1E4A                                            i2u51_40 1E34  
                                          i2u51_41 1E30                                            i2u48_40 1E82  
                                          i2u48_41 1E7E                                            i2u49_40 1E68  
                                          i2u49_41 1E64                __end_of_lcd_8bit_send_enable_signal 1DAC  
                      _lcd_8bit_send_enable_signal 1D76                                   ??_led_initialize 005B  
                                       _btn_values 1001                     lcd_8bit_send_enable_signal@lcd 0055  
                   lcd_8bit_send_enable_signal@ret 0057                                     _tris_registers 008A  
                         _RB6_InterruptHandler_LOW 001F                      ??_lcd_8bit_send_enable_signal 0057  
                                ??_MSSP_I2C_BC_ISR 004A                               _ADC_InterruptHandler 003D  
                                          __Hparam 0000                                            __Lparam 0000  
                              _ecu_layer_intialize 1E06                              _lcd_8bit_send_command 194C  
                                     __psmallconst 1000                         __end_of_gpio_pin_intialize 1C22  
                            _btn_high_valid_status 0075                                            __pcinit 1C8A  
                                          __ramtop 1000                                            __ptext0 18BC  
                                          __ptext1 1A58                                            __ptext2 1ACE  
                                          __ptext3 19DC                                            __ptext4 1ECA  
                                          __ptext5 1E06                                            __ptext6 166C  
                                          __ptext7 194C                                            __ptext8 1D76  
                                          __ptext9 1794                                          _T0CONbits 0FD5  
                                        _T1CONbits 0FCD                                     ??_MSSP_I2C_ISR 004A  
                                        _T2CONbits 0FCA                                          _T3CONbits 0FB1  
                             ?_ecu_layer_intialize 004A              lcd_8bit_intialize@l_data_pins_counter 0065  
            lcd_4bit_intialize@l_data_pins_counter 0061                                     __pintcode_body 1016  
                             end_of_initialization 1CE4                                  lcd_send_4bits@lcd 0055  
                                lcd_send_4bits@ret 0058                                            int_func 1016  
                       __end_of_lcd_4bit_intialize 18BC                            ??_lcd_4bit_send_command 005C  
                            gpio_pin_intialize@ret 0058                                led_turn_off@pin_obj 0058  
                                        _RCSTAbits 0FAB                                            postdec1 0FE5  
                                          postdec2 0FDD                                            postinc0 0FEE  
                                          postinc2 0FDE                              _INT1_InterruptHandler 002D  
                                        _PORTBbits 0F81                             ??_Data_EEPROM_ReadByte 004F  
                                 _InterruptManager 0008                      gpio_pin_intialize@_pin_config 0055  
                            ??_ecu_layer_intialize 0067               __end_of_gpio_pin_direction_intialize 1540  
                     _gpio_pin_direction_intialize 13FC                                          _TRISCbits 0F94  
                                    ?_USART_RX_ISR 004A                                      ?_USART_TX_ISR 004A  
                                      _CCP1CONbits 0FBD                                        _CCP2CONbits 0FBA  
                                        _TXSTAbits 0FAC                                       _led_turn_off 1ACE  
                               relay_turn_on@F3047 0043                             ?_lcd_8bit_send_command 0058  
                    convert_uint16_to_string@F3198 00A4                                        _BAUDCONbits 0FB8  
                                    __pidataCOMRAM 1E88                                     _timer0_preload 0019  
                                   _timer1_preload 0015                                     _timer2_preload 0041  
                              start_initialization 1C8A                                      ??_led_turn_on 0057  
                                   _timer3_preload 000F                       ?_lcd_4bit_send_enable_signal 0055  
                    ?_gpio_pin_direction_intialize 004B                                     ??_USART_RX_ISR 004A  
                                   ??_USART_TX_ISR 004A                           Data_EEPROM_ReadByte@bAdd 004B  
                        _USART_OverrunErrorHandler 0005                                    led_turn_off@led 0055  
                                  _eeprom_read_val 0049                               __end_of_MSSP_I2C_ISR 1ED8  
                                      __pdataBANK0 0080                                           ?_ADC_ISR 004A  
                     lcd_4bit_send_command@command 005B                           lcd_8bit_send_command@lcd 0058  
                         lcd_8bit_send_command@ret 005F                                           ?_RB4_ISR 004A  
                                         ?_RB5_ISR 004A                                           ?_RB6_ISR 004A  
                                         ?_RB7_ISR 004A                                        __pbssCOMRAM 0001  
 _MSSP_I2C_Report_Write_Collision_InterruptHandler 0033                                      __pcstackBANK0 00AA  
                                  _MSSP_I2C_BC_ISR 1ED8                                __end_of_led_turn_on 1ACE  
                            _INT2_InterruptHandler 002B                    _USART_RxDefaultInterruptHandler 0009  
                       _btn_high_last_valid_status 0074                    gpio_pin_direction_intialize@ret 0053  
                            _TMR0_InterruptHandler 0017                              _Data_EEPROM_WriteByte 1CEE  
                            _application_intialize 1ECA                                          __pintcode 0008  
                  gpio_pin_write_logic@_pin_config 004B                          gpio_pin_write_logic@logic 004D  
                                      __smallconst 1000                          _RB4_InterruptHandler_HIGH 0029  
                                         _CCP1_ISR 1EEC                                           _CCP2_ISR 1EE8  
                        _RB7_InterruptHandler_HIGH 001D                                 _gpio_pin_intialize 1BB6  
                   ??_gpio_pin_direction_intialize 004D                           _RB5_InterruptHandler_LOW 0023  
                                         _INT0_ISR 1EE4                                           _INT1_ISR 1EE0  
                                         _INT2_ISR 1EDC                                           _RB4_Flag 007B  
                                         _RB5_Flag 007A                                           _RB6_Flag 0079  
                                         _RB7_Flag 0078                                  RB4_ISR@RB4_Source 004A  
                              ?_gpio_pin_intialize 0055                           __end_of_InterruptManager 13FC  
                                         _PIE1bits 0F9D                                           _PIE2bits 0FA0  
                                         i2u200_40 1094                                           i2u200_41 1090  
                                         i2u201_40 10A2                                           i2u201_41 109E  
                                         i2u210_40 113A                                           i2u202_40 10B2  
                                         i2u210_41 1136                                           i2u202_41 10AE  
                                         i2u211_40 1152                                           i2u203_40 10CA  
                                         i2u211_41 114E                                           i2u203_41 10C6  
                                         i2u220_40 11E8                                           i2u212_40 1160  
                                         i2u204_40 10D8                                           i2u220_41 11E4  
                                         i2u212_41 115C                                           i2u204_41 10D4  
                    __end_of_lcd_4bit_send_command 1BB6                                           i2u221_40 11F6  
                                         i2u213_40 116E                                           i2u205_40 10E6  
                                         i2u221_41 11F2                                           i2u213_41 116A  
                                         i2u205_41 10E2                                           i2u230_40 128E  
                                         i2u222_40 1206                                           i2u214_40 117E  
                                         i2u206_40 10F6                                           i2u230_41 128A  
                                         i2u222_41 1202                                           i2u214_41 117A  
                                         i2u206_41 10F2                                           i2u231_40 12A6  
                                         i2u223_40 121E                                           i2u215_40 1196  
                                         i2u207_40 110E                                           i2u231_41 12A2  
                                         i2u223_41 121A                                           i2u215_41 1192  
                                         i2u207_41 110A                                           i2u240_40 1334  
                                         i2u232_40 12B4                                           i2u224_40 122C  
                                         i2u216_40 11A4                                           i2u208_40 111C  
                                         i2u240_41 1330                                           i2u232_41 12B0  
                                         i2u224_41 1228                                           i2u216_41 11A0  
                                         i2u208_41 1118                                           i2u241_40 1346  
                                         i2u233_40 12C6                                           i2u225_40 123A  
                                         i2u217_40 11B2                                           i2u209_40 112A  
                                         i2u241_41 1342                                           i2u233_41 12C2  
                                         i2u225_41 1236                                           i2u217_41 11AE  
                                         i2u209_41 1126                                           i2u250_40 13D4  
                                         i2u242_40 1354                                           i2u234_40 12D4  
                                         i2u226_40 124A                                           i2u218_40 11C2  
                                         i2u250_41 13D0                                           i2u242_41 1350  
                                         i2u234_41 12D0                                           i2u226_41 1246  
                                         i2u218_41 11BE                                           i2u251_40 13E6  
                                         i2u243_40 1366                                           i2u235_40 12E6  
                                         i2u227_40 1262                                           i2u219_40 11DA  
                                         i2u251_41 13E2                                           i2u243_41 1362  
                                         i2u235_41 12E2                                           i2u227_41 125E  
                                         i2u219_41 11D6                                           i2u252_40 13F4  
                                         i2u244_40 1374                                           i2u236_40 12F4  
                                         i2u228_40 1270                                           i2u252_41 13F0  
                                         i2u244_41 1370                                           i2u236_41 12F0  
                                         i2u228_41 126C                                           i2u245_40 1386  
                                         i2u237_40 1306                                           i2u229_40 127E  
                                         i2u245_41 1382                                           i2u237_41 1302  
                                         i2u229_41 127A                                           i2u246_40 1394  
                                         i2u238_40 1314                                           i2u246_41 1390  
                                         i2u238_41 1310                                           i2u247_40 13A6  
                                         i2u239_40 1326                                           i2u247_41 13A2  
                                         i2u239_41 1322                                           i2u248_40 13B4  
                                         i2u248_41 13B0                                           i2u249_40 13C6  
                                         i2u193_40 1026                                           i2u249_41 13C2  
                                         i2u193_41 1022                                           _PIR1bits 0F9E  
                                         i2u194_40 1034                                           i2u194_41 1030  
                                         i2u195_40 1046                                           i2u195_41 1042  
                                         _PIR2bits 0FA1                                           i2u196_40 1054  
                                         i2u196_41 1050                                           i2u197_40 1066  
                                         i2u197_41 1062                                           i2u198_40 1074  
                                         i2u198_41 1070                                 led_turn_on@pin_obj 0058  
                                         i2u199_40 1086                                           i2u199_41 1082  
                                         _TMR0_ISR 1EB6                                           _TMR1_ISR 1EAA  
                                         _TMR2_ISR 1EC2                                           _TMR3_ISR 1E9E  
                             __end_of_USART_RX_ISR 1EF6                              lcd_8bit_intialize@lcd 0061  
                             __end_of_USART_TX_ISR 1ED4                                 _lcd_4bit_intialize 1794  
                            lcd_8bit_intialize@ret 0066                                         _ADCON0bits 0FC2  
                                       _ADCON1bits 0FC1                                         _ADCON2bits 0FC0  
                          __end_of_MSSP_I2C_BC_ISR 1EDC                               ??_gpio_pin_intialize 0057  
                                 _program_selected 003F                          Data_EEPROM_ReadByte@bData 004D  
                              ?_lcd_4bit_intialize 005D                   _MSSP_I2C_DefaultInterruptHandler 0035  
                                      _led_turn_on 1A58                            gpio_pin_write_logic@ret 0054  
                                      _INTCON2bits 0FF1       Data_EEPROM_WriteByte@Global_Interrupt_Status 004E  
                                      _INTCON3bits 0FF0                                          copy_data0 1C9E  
                                        copy_data1 1CBE                             ?_Data_EEPROM_WriteByte 004B  
                          ??_lcd_8bit_send_command 005B                                         _EECON1bits 0FA6  
                           ?_application_intialize 004A                               ??_lcd_4bit_intialize 005F  
                                   led_turn_on@led 0055                                           __Hrparam 0000  
                                         __Lrparam 0000                                  RB6_ISR@RB6_Source 004A  
                            _CCP1_InterruptHandler 003B                        __end_of_ecu_layer_intialize 1E20  
                               __end_of_btn_values 1011                              _TMR1_InterruptHandler 0013  
                                     _MSSP_I2C_ISR 1ED4                                           __ptext10 1B44  
                                         __ptext11 1C22                                           __ptext20 1EF4  
                                         __ptext12 1DAC                                           __ptext21 1E9E  
                                         __ptext13 1BB6                                           __ptext30 1ED8  
                                         __ptext22 1EC2                                           __ptext14 1540  
                                         __ptext31 1EDC                                           __ptext23 1EAA  
                                         __ptext15 13FC                                           __ptext32 1EE0  
                                         __ptext24 1EB6                                           __ptext16 1CEE  
                                         __ptext33 1EE4                                           __ptext25 1E20  
                                         __ptext17 1D34                                           __ptext34 1EE8  
                                         __ptext26 1E3A                                           __ptext35 1EEC  
                                         __ptext27 1E54                                           __ptext19 1ED0  
                                         __ptext36 1EF0                                           __ptext28 1E6E  
                                         __ptext29 1ED4                                           _btn_high 0071  
                                         isa$xinst 0000                                           int$flags 007D  
                                   _lcd_send_4bits 1C22                                   ?_MSSP_I2C_BC_ISR 004A  
                                       _INTCONbits 0FF2                                    _btn_high_status 0076  
                     __end_of_gpio_pin_write_logic 166C                       ?_lcd_8bit_send_enable_signal 0055  
                                         intlevel2 0000                     lcd_4bit_send_enable_signal@lcd 0055  
                   lcd_4bit_send_enable_signal@ret 0057                         Data_EEPROM_WriteByte@bData 004D  
                           __end_of_lcd_send_4bits 1C8A                                     _btn_high_valid 0001  
                                   _port_registers 0080                          Data_EEPROM_WriteByte@bAdd 004B  
                                      _SSPCON1bits 0FC6                                        _SSPCON2bits 0FC5  
                  CCP_Set_Compare_Mode_Value@F3106 0037                              _CCP2_InterruptHandler 0039  
                                     _USART_RX_ISR 1EF4                                       _USART_TX_ISR 1ED0  
                     lcd_8bit_send_command@command 005A                              _TMR2_InterruptHandler 0011  
                                ?_InterruptManager 004A                         __end_of_lcd_8bit_intialize 1794  
                                   _led_initialize 19DC  
